
./test/test.om:     file format elf32-littleriscv


Disassembly of section .rom:

00000000 <.rom>:
   0:	00020137          	lui	sp,0x20
   4:	01d010ef          	jal	ra,1820 <main>
   8:	0ff00513          	li	a0,255
   c:	000306b7          	lui	a3,0x30
  10:	00a68223          	sb	a0,4(a3) # 30004 <__heap_start+0x2e004>
  14:	ff9ff06f          	j	c <outb-0xff4>

Disassembly of section .text:

00001000 <outb>:
    1000:	fe010113          	addi	sp,sp,-32 # 1ffe0 <__heap_start+0x1dfe0>
    1004:	00812e23          	sw	s0,28(sp)
    1008:	02010413          	addi	s0,sp,32
    100c:	00050793          	mv	a5,a0
    1010:	fef407a3          	sb	a5,-17(s0)
    1014:	000307b7          	lui	a5,0x30
    1018:	fef44703          	lbu	a4,-17(s0)
    101c:	00e78023          	sb	a4,0(a5) # 30000 <__heap_start+0x2e000>
    1020:	00000013          	nop
    1024:	01c12403          	lw	s0,28(sp)
    1028:	02010113          	addi	sp,sp,32
    102c:	00008067          	ret

00001030 <outl>:
    1030:	fc010113          	addi	sp,sp,-64
    1034:	02112e23          	sw	ra,60(sp)
    1038:	02812c23          	sw	s0,56(sp)
    103c:	04010413          	addi	s0,sp,64
    1040:	fca42623          	sw	a0,-52(s0)
    1044:	fcc42783          	lw	a5,-52(s0)
    1048:	fef42623          	sw	a5,-20(s0)
    104c:	fe042423          	sw	zero,-24(s0)
    1050:	fe042223          	sw	zero,-28(s0)
    1054:	fec42783          	lw	a5,-20(s0)
    1058:	0007dc63          	bgez	a5,1070 <outl+0x40>
    105c:	00100793          	li	a5,1
    1060:	fef42223          	sw	a5,-28(s0)
    1064:	fec42783          	lw	a5,-20(s0)
    1068:	40f007b3          	neg	a5,a5
    106c:	fef42623          	sw	a5,-20(s0)
    1070:	fec42783          	lw	a5,-20(s0)
    1074:	00a00593          	li	a1,10
    1078:	00078513          	mv	a0,a5
    107c:	2e5000ef          	jal	ra,1b60 <__modsi3>
    1080:	00050793          	mv	a5,a0
    1084:	0ff7f713          	andi	a4,a5,255
    1088:	fe842783          	lw	a5,-24(s0)
    108c:	00178693          	addi	a3,a5,1
    1090:	fed42423          	sw	a3,-24(s0)
    1094:	03070713          	addi	a4,a4,48
    1098:	0ff77713          	andi	a4,a4,255
    109c:	ff040693          	addi	a3,s0,-16
    10a0:	00f687b3          	add	a5,a3,a5
    10a4:	fee78423          	sb	a4,-24(a5)
    10a8:	fec42783          	lw	a5,-20(s0)
    10ac:	00a00593          	li	a1,10
    10b0:	00078513          	mv	a0,a5
    10b4:	229000ef          	jal	ra,1adc <__divsi3>
    10b8:	00050793          	mv	a5,a0
    10bc:	fef42623          	sw	a5,-20(s0)
    10c0:	fec42783          	lw	a5,-20(s0)
    10c4:	faf046e3          	bgtz	a5,1070 <outl+0x40>
    10c8:	fe442783          	lw	a5,-28(s0)
    10cc:	02078e63          	beqz	a5,1108 <outl+0xd8>
    10d0:	fe842783          	lw	a5,-24(s0)
    10d4:	00178713          	addi	a4,a5,1
    10d8:	fee42423          	sw	a4,-24(s0)
    10dc:	ff040713          	addi	a4,s0,-16
    10e0:	00f707b3          	add	a5,a4,a5
    10e4:	02d00713          	li	a4,45
    10e8:	fee78423          	sb	a4,-24(a5)
    10ec:	01c0006f          	j	1108 <outl+0xd8>
    10f0:	fe842783          	lw	a5,-24(s0)
    10f4:	ff040713          	addi	a4,s0,-16
    10f8:	00f707b3          	add	a5,a4,a5
    10fc:	fe87c783          	lbu	a5,-24(a5)
    1100:	00078513          	mv	a0,a5
    1104:	efdff0ef          	jal	ra,1000 <outb>
    1108:	fe842783          	lw	a5,-24(s0)
    110c:	fff78713          	addi	a4,a5,-1
    1110:	fee42423          	sw	a4,-24(s0)
    1114:	fc079ee3          	bnez	a5,10f0 <outl+0xc0>
    1118:	00000013          	nop
    111c:	00000013          	nop
    1120:	03c12083          	lw	ra,60(sp)
    1124:	03812403          	lw	s0,56(sp)
    1128:	04010113          	addi	sp,sp,64
    112c:	00008067          	ret

00001130 <print>:
    1130:	fe010113          	addi	sp,sp,-32
    1134:	00112e23          	sw	ra,28(sp)
    1138:	00812c23          	sw	s0,24(sp)
    113c:	02010413          	addi	s0,sp,32
    1140:	fea42623          	sw	a0,-20(s0)
    1144:	0200006f          	j	1164 <print+0x34>
    1148:	fec42783          	lw	a5,-20(s0)
    114c:	0007c783          	lbu	a5,0(a5)
    1150:	00078513          	mv	a0,a5
    1154:	eadff0ef          	jal	ra,1000 <outb>
    1158:	fec42783          	lw	a5,-20(s0)
    115c:	00178793          	addi	a5,a5,1
    1160:	fef42623          	sw	a5,-20(s0)
    1164:	fec42783          	lw	a5,-20(s0)
    1168:	0007c783          	lbu	a5,0(a5)
    116c:	fc079ee3          	bnez	a5,1148 <print+0x18>
    1170:	00000013          	nop
    1174:	00000013          	nop
    1178:	01c12083          	lw	ra,28(sp)
    117c:	01812403          	lw	s0,24(sp)
    1180:	02010113          	addi	sp,sp,32
    1184:	00008067          	ret

00001188 <println>:
    1188:	fe010113          	addi	sp,sp,-32
    118c:	00112e23          	sw	ra,28(sp)
    1190:	00812c23          	sw	s0,24(sp)
    1194:	02010413          	addi	s0,sp,32
    1198:	fea42623          	sw	a0,-20(s0)
    119c:	fec42503          	lw	a0,-20(s0)
    11a0:	f91ff0ef          	jal	ra,1130 <print>
    11a4:	00a00513          	li	a0,10
    11a8:	e59ff0ef          	jal	ra,1000 <outb>
    11ac:	00000013          	nop
    11b0:	01c12083          	lw	ra,28(sp)
    11b4:	01812403          	lw	s0,24(sp)
    11b8:	02010113          	addi	sp,sp,32
    11bc:	00008067          	ret

000011c0 <outlln>:
    11c0:	fe010113          	addi	sp,sp,-32
    11c4:	00112e23          	sw	ra,28(sp)
    11c8:	00812c23          	sw	s0,24(sp)
    11cc:	02010413          	addi	s0,sp,32
    11d0:	fea42623          	sw	a0,-20(s0)
    11d4:	fec42783          	lw	a5,-20(s0)
    11d8:	00078513          	mv	a0,a5
    11dc:	e55ff0ef          	jal	ra,1030 <outl>
    11e0:	00a00513          	li	a0,10
    11e4:	e1dff0ef          	jal	ra,1000 <outb>
    11e8:	00000013          	nop
    11ec:	01c12083          	lw	ra,28(sp)
    11f0:	01812403          	lw	s0,24(sp)
    11f4:	02010113          	addi	sp,sp,32
    11f8:	00008067          	ret

000011fc <random>:
    11fc:	fe010113          	addi	sp,sp,-32
    1200:	00112e23          	sw	ra,28(sp)
    1204:	00812c23          	sw	s0,24(sp)
    1208:	00912a23          	sw	s1,20(sp)
    120c:	02010413          	addi	s0,sp,32
    1210:	000027b7          	lui	a5,0x2
    1214:	c207a703          	lw	a4,-992(a5) # 1c20 <seed>
    1218:	000027b7          	lui	a5,0x2
    121c:	c2c7a783          	lw	a5,-980(a5) # 1c2c <Q>
    1220:	00078593          	mv	a1,a5
    1224:	00070513          	mv	a0,a4
    1228:	139000ef          	jal	ra,1b60 <__modsi3>
    122c:	00050793          	mv	a5,a0
    1230:	00078713          	mv	a4,a5
    1234:	000027b7          	lui	a5,0x2
    1238:	c187a783          	lw	a5,-1000(a5) # 1c18 <A>
    123c:	00078593          	mv	a1,a5
    1240:	00070513          	mv	a0,a4
    1244:	075000ef          	jal	ra,1ab8 <__mulsi3>
    1248:	00050793          	mv	a5,a0
    124c:	00078493          	mv	s1,a5
    1250:	000027b7          	lui	a5,0x2
    1254:	c207a703          	lw	a4,-992(a5) # 1c20 <seed>
    1258:	000027b7          	lui	a5,0x2
    125c:	c2c7a783          	lw	a5,-980(a5) # 1c2c <Q>
    1260:	00078593          	mv	a1,a5
    1264:	00070513          	mv	a0,a4
    1268:	075000ef          	jal	ra,1adc <__divsi3>
    126c:	00050793          	mv	a5,a0
    1270:	00078713          	mv	a4,a5
    1274:	000027b7          	lui	a5,0x2
    1278:	c307a783          	lw	a5,-976(a5) # 1c30 <R>
    127c:	00078593          	mv	a1,a5
    1280:	00070513          	mv	a0,a4
    1284:	035000ef          	jal	ra,1ab8 <__mulsi3>
    1288:	00050793          	mv	a5,a0
    128c:	40f487b3          	sub	a5,s1,a5
    1290:	fef42623          	sw	a5,-20(s0)
    1294:	fec42783          	lw	a5,-20(s0)
    1298:	0007ca63          	bltz	a5,12ac <random+0xb0>
    129c:	000027b7          	lui	a5,0x2
    12a0:	fec42703          	lw	a4,-20(s0)
    12a4:	c2e7a023          	sw	a4,-992(a5) # 1c20 <seed>
    12a8:	01c0006f          	j	12c4 <random+0xc8>
    12ac:	000027b7          	lui	a5,0x2
    12b0:	c1c7a703          	lw	a4,-996(a5) # 1c1c <M>
    12b4:	fec42783          	lw	a5,-20(s0)
    12b8:	00f70733          	add	a4,a4,a5
    12bc:	000027b7          	lui	a5,0x2
    12c0:	c2e7a023          	sw	a4,-992(a5) # 1c20 <seed>
    12c4:	000027b7          	lui	a5,0x2
    12c8:	c207a783          	lw	a5,-992(a5) # 1c20 <seed>
    12cc:	00078513          	mv	a0,a5
    12d0:	01c12083          	lw	ra,28(sp)
    12d4:	01812403          	lw	s0,24(sp)
    12d8:	01412483          	lw	s1,20(sp)
    12dc:	02010113          	addi	sp,sp,32
    12e0:	00008067          	ret

000012e4 <initialize>:
    12e4:	fe010113          	addi	sp,sp,-32
    12e8:	00812e23          	sw	s0,28(sp)
    12ec:	02010413          	addi	s0,sp,32
    12f0:	fea42623          	sw	a0,-20(s0)
    12f4:	000027b7          	lui	a5,0x2
    12f8:	fec42703          	lw	a4,-20(s0)
    12fc:	c2e7a023          	sw	a4,-992(a5) # 1c20 <seed>
    1300:	00000013          	nop
    1304:	01c12403          	lw	s0,28(sp)
    1308:	02010113          	addi	sp,sp,32
    130c:	00008067          	ret

00001310 <swap>:
    1310:	fd010113          	addi	sp,sp,-48
    1314:	02812623          	sw	s0,44(sp)
    1318:	03010413          	addi	s0,sp,48
    131c:	fca42e23          	sw	a0,-36(s0)
    1320:	fcb42c23          	sw	a1,-40(s0)
    1324:	000027b7          	lui	a5,0x2
    1328:	c3878713          	addi	a4,a5,-968 # 1c38 <a>
    132c:	fdc42783          	lw	a5,-36(s0)
    1330:	00279793          	slli	a5,a5,0x2
    1334:	00f707b3          	add	a5,a4,a5
    1338:	0007a783          	lw	a5,0(a5)
    133c:	fef42623          	sw	a5,-20(s0)
    1340:	000027b7          	lui	a5,0x2
    1344:	c3878713          	addi	a4,a5,-968 # 1c38 <a>
    1348:	fd842783          	lw	a5,-40(s0)
    134c:	00279793          	slli	a5,a5,0x2
    1350:	00f707b3          	add	a5,a4,a5
    1354:	0007a703          	lw	a4,0(a5)
    1358:	000027b7          	lui	a5,0x2
    135c:	c3878693          	addi	a3,a5,-968 # 1c38 <a>
    1360:	fdc42783          	lw	a5,-36(s0)
    1364:	00279793          	slli	a5,a5,0x2
    1368:	00f687b3          	add	a5,a3,a5
    136c:	00e7a023          	sw	a4,0(a5)
    1370:	000027b7          	lui	a5,0x2
    1374:	c3878713          	addi	a4,a5,-968 # 1c38 <a>
    1378:	fd842783          	lw	a5,-40(s0)
    137c:	00279793          	slli	a5,a5,0x2
    1380:	00f707b3          	add	a5,a4,a5
    1384:	fec42703          	lw	a4,-20(s0)
    1388:	00e7a023          	sw	a4,0(a5)
    138c:	00000013          	nop
    1390:	02c12403          	lw	s0,44(sp)
    1394:	03010113          	addi	sp,sp,48
    1398:	00008067          	ret

0000139c <pd>:
    139c:	fe010113          	addi	sp,sp,-32
    13a0:	00112e23          	sw	ra,28(sp)
    13a4:	00812c23          	sw	s0,24(sp)
    13a8:	02010413          	addi	s0,sp,32
    13ac:	fea42623          	sw	a0,-20(s0)
    13b0:	05c0006f          	j	140c <pd+0x70>
    13b4:	000027b7          	lui	a5,0x2
    13b8:	c347a783          	lw	a5,-972(a5) # 1c34 <h>
    13bc:	00178713          	addi	a4,a5,1
    13c0:	000027b7          	lui	a5,0x2
    13c4:	c347a783          	lw	a5,-972(a5) # 1c34 <h>
    13c8:	00078593          	mv	a1,a5
    13cc:	00070513          	mv	a0,a4
    13d0:	6e8000ef          	jal	ra,1ab8 <__mulsi3>
    13d4:	00050793          	mv	a5,a0
    13d8:	01f7d713          	srli	a4,a5,0x1f
    13dc:	00f707b3          	add	a5,a4,a5
    13e0:	4017d793          	srai	a5,a5,0x1
    13e4:	00078713          	mv	a4,a5
    13e8:	fec42783          	lw	a5,-20(s0)
    13ec:	00e79663          	bne	a5,a4,13f8 <pd+0x5c>
    13f0:	00100793          	li	a5,1
    13f4:	02c0006f          	j	1420 <pd+0x84>
    13f8:	000027b7          	lui	a5,0x2
    13fc:	c347a783          	lw	a5,-972(a5) # 1c34 <h>
    1400:	00178713          	addi	a4,a5,1
    1404:	000027b7          	lui	a5,0x2
    1408:	c2e7aa23          	sw	a4,-972(a5) # 1c34 <h>
    140c:	000027b7          	lui	a5,0x2
    1410:	c347a783          	lw	a5,-972(a5) # 1c34 <h>
    1414:	fec42703          	lw	a4,-20(s0)
    1418:	f8f75ee3          	bge	a4,a5,13b4 <pd+0x18>
    141c:	00000793          	li	a5,0
    1420:	00078513          	mv	a0,a5
    1424:	01c12083          	lw	ra,28(sp)
    1428:	01812403          	lw	s0,24(sp)
    142c:	02010113          	addi	sp,sp,32
    1430:	00008067          	ret

00001434 <show>:
    1434:	fe010113          	addi	sp,sp,-32
    1438:	00112e23          	sw	ra,28(sp)
    143c:	00812c23          	sw	s0,24(sp)
    1440:	02010413          	addi	s0,sp,32
    1444:	fe042623          	sw	zero,-20(s0)
    1448:	03c0006f          	j	1484 <show+0x50>
    144c:	000027b7          	lui	a5,0x2
    1450:	c3878713          	addi	a4,a5,-968 # 1c38 <a>
    1454:	fec42783          	lw	a5,-20(s0)
    1458:	00279793          	slli	a5,a5,0x2
    145c:	00f707b3          	add	a5,a4,a5
    1460:	0007a783          	lw	a5,0(a5)
    1464:	00078513          	mv	a0,a5
    1468:	bc9ff0ef          	jal	ra,1030 <outl>
    146c:	000027b7          	lui	a5,0x2
    1470:	b9078513          	addi	a0,a5,-1136 # 1b90 <__modsi3+0x30>
    1474:	cbdff0ef          	jal	ra,1130 <print>
    1478:	fec42783          	lw	a5,-20(s0)
    147c:	00178793          	addi	a5,a5,1
    1480:	fef42623          	sw	a5,-20(s0)
    1484:	000027b7          	lui	a5,0x2
    1488:	c247a783          	lw	a5,-988(a5) # 1c24 <now>
    148c:	fec42703          	lw	a4,-20(s0)
    1490:	faf74ee3          	blt	a4,a5,144c <show+0x18>
    1494:	000027b7          	lui	a5,0x2
    1498:	b9478513          	addi	a0,a5,-1132 # 1b94 <__modsi3+0x34>
    149c:	cedff0ef          	jal	ra,1188 <println>
    14a0:	00000013          	nop
    14a4:	01c12083          	lw	ra,28(sp)
    14a8:	01812403          	lw	s0,24(sp)
    14ac:	02010113          	addi	sp,sp,32
    14b0:	00008067          	ret

000014b4 <win>:
    14b4:	e5010113          	addi	sp,sp,-432
    14b8:	1a812623          	sw	s0,428(sp)
    14bc:	1b010413          	addi	s0,sp,432
    14c0:	000027b7          	lui	a5,0x2
    14c4:	c247a703          	lw	a4,-988(a5) # 1c24 <now>
    14c8:	000027b7          	lui	a5,0x2
    14cc:	c347a783          	lw	a5,-972(a5) # 1c34 <h>
    14d0:	00f70663          	beq	a4,a5,14dc <win+0x28>
    14d4:	00000793          	li	a5,0
    14d8:	17c0006f          	j	1654 <win+0x1a0>
    14dc:	fe042423          	sw	zero,-24(s0)
    14e0:	03c0006f          	j	151c <win+0x68>
    14e4:	000027b7          	lui	a5,0x2
    14e8:	c3878713          	addi	a4,a5,-968 # 1c38 <a>
    14ec:	fe842783          	lw	a5,-24(s0)
    14f0:	00279793          	slli	a5,a5,0x2
    14f4:	00f707b3          	add	a5,a4,a5
    14f8:	0007a703          	lw	a4,0(a5)
    14fc:	fe842783          	lw	a5,-24(s0)
    1500:	00279793          	slli	a5,a5,0x2
    1504:	ff040693          	addi	a3,s0,-16
    1508:	00f687b3          	add	a5,a3,a5
    150c:	e6e7a223          	sw	a4,-412(a5)
    1510:	fe842783          	lw	a5,-24(s0)
    1514:	00178793          	addi	a5,a5,1
    1518:	fef42423          	sw	a5,-24(s0)
    151c:	000027b7          	lui	a5,0x2
    1520:	c247a783          	lw	a5,-988(a5) # 1c24 <now>
    1524:	fe842703          	lw	a4,-24(s0)
    1528:	faf74ee3          	blt	a4,a5,14e4 <win+0x30>
    152c:	fe042623          	sw	zero,-20(s0)
    1530:	0c00006f          	j	15f0 <win+0x13c>
    1534:	fec42783          	lw	a5,-20(s0)
    1538:	00178793          	addi	a5,a5,1
    153c:	fef42423          	sw	a5,-24(s0)
    1540:	0940006f          	j	15d4 <win+0x120>
    1544:	fec42783          	lw	a5,-20(s0)
    1548:	00279793          	slli	a5,a5,0x2
    154c:	ff040713          	addi	a4,s0,-16
    1550:	00f707b3          	add	a5,a4,a5
    1554:	e647a703          	lw	a4,-412(a5)
    1558:	fe842783          	lw	a5,-24(s0)
    155c:	00279793          	slli	a5,a5,0x2
    1560:	ff040693          	addi	a3,s0,-16
    1564:	00f687b3          	add	a5,a3,a5
    1568:	e647a783          	lw	a5,-412(a5)
    156c:	04e7de63          	bge	a5,a4,15c8 <win+0x114>
    1570:	fec42783          	lw	a5,-20(s0)
    1574:	00279793          	slli	a5,a5,0x2
    1578:	ff040713          	addi	a4,s0,-16
    157c:	00f707b3          	add	a5,a4,a5
    1580:	e647a783          	lw	a5,-412(a5)
    1584:	fef42223          	sw	a5,-28(s0)
    1588:	fe842783          	lw	a5,-24(s0)
    158c:	00279793          	slli	a5,a5,0x2
    1590:	ff040713          	addi	a4,s0,-16
    1594:	00f707b3          	add	a5,a4,a5
    1598:	e647a703          	lw	a4,-412(a5)
    159c:	fec42783          	lw	a5,-20(s0)
    15a0:	00279793          	slli	a5,a5,0x2
    15a4:	ff040693          	addi	a3,s0,-16
    15a8:	00f687b3          	add	a5,a3,a5
    15ac:	e6e7a223          	sw	a4,-412(a5)
    15b0:	fe842783          	lw	a5,-24(s0)
    15b4:	00279793          	slli	a5,a5,0x2
    15b8:	ff040713          	addi	a4,s0,-16
    15bc:	00f707b3          	add	a5,a4,a5
    15c0:	fe442703          	lw	a4,-28(s0)
    15c4:	e6e7a223          	sw	a4,-412(a5)
    15c8:	fe842783          	lw	a5,-24(s0)
    15cc:	00178793          	addi	a5,a5,1
    15d0:	fef42423          	sw	a5,-24(s0)
    15d4:	000027b7          	lui	a5,0x2
    15d8:	c247a783          	lw	a5,-988(a5) # 1c24 <now>
    15dc:	fe842703          	lw	a4,-24(s0)
    15e0:	f6f742e3          	blt	a4,a5,1544 <win+0x90>
    15e4:	fec42783          	lw	a5,-20(s0)
    15e8:	00178793          	addi	a5,a5,1
    15ec:	fef42623          	sw	a5,-20(s0)
    15f0:	000027b7          	lui	a5,0x2
    15f4:	c247a783          	lw	a5,-988(a5) # 1c24 <now>
    15f8:	fff78793          	addi	a5,a5,-1
    15fc:	fec42703          	lw	a4,-20(s0)
    1600:	f2f74ae3          	blt	a4,a5,1534 <win+0x80>
    1604:	fe042623          	sw	zero,-20(s0)
    1608:	0380006f          	j	1640 <win+0x18c>
    160c:	fec42783          	lw	a5,-20(s0)
    1610:	00279793          	slli	a5,a5,0x2
    1614:	ff040713          	addi	a4,s0,-16
    1618:	00f707b3          	add	a5,a4,a5
    161c:	e647a703          	lw	a4,-412(a5)
    1620:	fec42783          	lw	a5,-20(s0)
    1624:	00178793          	addi	a5,a5,1
    1628:	00f70663          	beq	a4,a5,1634 <win+0x180>
    162c:	00000793          	li	a5,0
    1630:	0240006f          	j	1654 <win+0x1a0>
    1634:	fec42783          	lw	a5,-20(s0)
    1638:	00178793          	addi	a5,a5,1
    163c:	fef42623          	sw	a5,-20(s0)
    1640:	000027b7          	lui	a5,0x2
    1644:	c247a783          	lw	a5,-988(a5) # 1c24 <now>
    1648:	fec42703          	lw	a4,-20(s0)
    164c:	fcf740e3          	blt	a4,a5,160c <win+0x158>
    1650:	00100793          	li	a5,1
    1654:	00078513          	mv	a0,a5
    1658:	1ac12403          	lw	s0,428(sp)
    165c:	1b010113          	addi	sp,sp,432
    1660:	00008067          	ret

00001664 <merge>:
    1664:	fe010113          	addi	sp,sp,-32
    1668:	00112e23          	sw	ra,28(sp)
    166c:	00812c23          	sw	s0,24(sp)
    1670:	02010413          	addi	s0,sp,32
    1674:	fe042623          	sw	zero,-20(s0)
    1678:	0840006f          	j	16fc <merge+0x98>
    167c:	000027b7          	lui	a5,0x2
    1680:	c3878713          	addi	a4,a5,-968 # 1c38 <a>
    1684:	fec42783          	lw	a5,-20(s0)
    1688:	00279793          	slli	a5,a5,0x2
    168c:	00f707b3          	add	a5,a4,a5
    1690:	0007a783          	lw	a5,0(a5)
    1694:	04079e63          	bnez	a5,16f0 <merge+0x8c>
    1698:	fec42783          	lw	a5,-20(s0)
    169c:	00178793          	addi	a5,a5,1
    16a0:	fef42423          	sw	a5,-24(s0)
    16a4:	03c0006f          	j	16e0 <merge+0x7c>
    16a8:	000027b7          	lui	a5,0x2
    16ac:	c3878713          	addi	a4,a5,-968 # 1c38 <a>
    16b0:	fe842783          	lw	a5,-24(s0)
    16b4:	00279793          	slli	a5,a5,0x2
    16b8:	00f707b3          	add	a5,a4,a5
    16bc:	0007a783          	lw	a5,0(a5)
    16c0:	00078a63          	beqz	a5,16d4 <merge+0x70>
    16c4:	fe842583          	lw	a1,-24(s0)
    16c8:	fec42503          	lw	a0,-20(s0)
    16cc:	c45ff0ef          	jal	ra,1310 <swap>
    16d0:	0200006f          	j	16f0 <merge+0x8c>
    16d4:	fe842783          	lw	a5,-24(s0)
    16d8:	00178793          	addi	a5,a5,1
    16dc:	fef42423          	sw	a5,-24(s0)
    16e0:	000027b7          	lui	a5,0x2
    16e4:	c247a783          	lw	a5,-988(a5) # 1c24 <now>
    16e8:	fe842703          	lw	a4,-24(s0)
    16ec:	faf74ee3          	blt	a4,a5,16a8 <merge+0x44>
    16f0:	fec42783          	lw	a5,-20(s0)
    16f4:	00178793          	addi	a5,a5,1
    16f8:	fef42623          	sw	a5,-20(s0)
    16fc:	000027b7          	lui	a5,0x2
    1700:	c247a783          	lw	a5,-988(a5) # 1c24 <now>
    1704:	fec42703          	lw	a4,-20(s0)
    1708:	f6f74ae3          	blt	a4,a5,167c <merge+0x18>
    170c:	fe042623          	sw	zero,-20(s0)
    1710:	03c0006f          	j	174c <merge+0xe8>
    1714:	000027b7          	lui	a5,0x2
    1718:	c3878713          	addi	a4,a5,-968 # 1c38 <a>
    171c:	fec42783          	lw	a5,-20(s0)
    1720:	00279793          	slli	a5,a5,0x2
    1724:	00f707b3          	add	a5,a4,a5
    1728:	0007a783          	lw	a5,0(a5)
    172c:	00079a63          	bnez	a5,1740 <merge+0xdc>
    1730:	000027b7          	lui	a5,0x2
    1734:	fec42703          	lw	a4,-20(s0)
    1738:	c2e7a223          	sw	a4,-988(a5) # 1c24 <now>
    173c:	0240006f          	j	1760 <merge+0xfc>
    1740:	fec42783          	lw	a5,-20(s0)
    1744:	00178793          	addi	a5,a5,1
    1748:	fef42623          	sw	a5,-20(s0)
    174c:	000027b7          	lui	a5,0x2
    1750:	c247a783          	lw	a5,-988(a5) # 1c24 <now>
    1754:	fec42703          	lw	a4,-20(s0)
    1758:	faf74ee3          	blt	a4,a5,1714 <merge+0xb0>
    175c:	00000013          	nop
    1760:	00000013          	nop
    1764:	01c12083          	lw	ra,28(sp)
    1768:	01812403          	lw	s0,24(sp)
    176c:	02010113          	addi	sp,sp,32
    1770:	00008067          	ret

00001774 <move>:
    1774:	fe010113          	addi	sp,sp,-32
    1778:	00812e23          	sw	s0,28(sp)
    177c:	02010413          	addi	s0,sp,32
    1780:	fe042623          	sw	zero,-20(s0)
    1784:	0440006f          	j	17c8 <move+0x54>
    1788:	000027b7          	lui	a5,0x2
    178c:	c3878713          	addi	a4,a5,-968 # 1c38 <a>
    1790:	fec42783          	lw	a5,-20(s0)
    1794:	00279793          	slli	a5,a5,0x2
    1798:	00f707b3          	add	a5,a4,a5
    179c:	0007a783          	lw	a5,0(a5)
    17a0:	fff78713          	addi	a4,a5,-1
    17a4:	000027b7          	lui	a5,0x2
    17a8:	c3878693          	addi	a3,a5,-968 # 1c38 <a>
    17ac:	fec42783          	lw	a5,-20(s0)
    17b0:	00279793          	slli	a5,a5,0x2
    17b4:	00f687b3          	add	a5,a3,a5
    17b8:	00e7a023          	sw	a4,0(a5)
    17bc:	fec42783          	lw	a5,-20(s0)
    17c0:	00178793          	addi	a5,a5,1
    17c4:	fef42623          	sw	a5,-20(s0)
    17c8:	000027b7          	lui	a5,0x2
    17cc:	c247a783          	lw	a5,-988(a5) # 1c24 <now>
    17d0:	fec42703          	lw	a4,-20(s0)
    17d4:	faf74ae3          	blt	a4,a5,1788 <move+0x14>
    17d8:	000027b7          	lui	a5,0x2
    17dc:	c247a783          	lw	a5,-988(a5) # 1c24 <now>
    17e0:	00002737          	lui	a4,0x2
    17e4:	c2472703          	lw	a4,-988(a4) # 1c24 <now>
    17e8:	000026b7          	lui	a3,0x2
    17ec:	c3868693          	addi	a3,a3,-968 # 1c38 <a>
    17f0:	00279793          	slli	a5,a5,0x2
    17f4:	00f687b3          	add	a5,a3,a5
    17f8:	00e7a023          	sw	a4,0(a5)
    17fc:	000027b7          	lui	a5,0x2
    1800:	c247a783          	lw	a5,-988(a5) # 1c24 <now>
    1804:	00178713          	addi	a4,a5,1
    1808:	000027b7          	lui	a5,0x2
    180c:	c2e7a223          	sw	a4,-988(a5) # 1c24 <now>
    1810:	00000013          	nop
    1814:	01c12403          	lw	s0,28(sp)
    1818:	02010113          	addi	sp,sp,32
    181c:	00008067          	ret

00001820 <main>:
    1820:	fe010113          	addi	sp,sp,-32
    1824:	00112e23          	sw	ra,28(sp)
    1828:	00812c23          	sw	s0,24(sp)
    182c:	02010413          	addi	s0,sp,32
    1830:	fe042623          	sw	zero,-20(s0)
    1834:	fe042423          	sw	zero,-24(s0)
    1838:	fe042223          	sw	zero,-28(s0)
    183c:	000027b7          	lui	a5,0x2
    1840:	0d200713          	li	a4,210
    1844:	c2e7a423          	sw	a4,-984(a5) # 1c28 <n>
    1848:	000027b7          	lui	a5,0x2
    184c:	c207aa23          	sw	zero,-972(a5) # 1c34 <h>
    1850:	000027b7          	lui	a5,0x2
    1854:	c1c7a703          	lw	a4,-996(a5) # 1c1c <M>
    1858:	000027b7          	lui	a5,0x2
    185c:	c187a783          	lw	a5,-1000(a5) # 1c18 <A>
    1860:	00078593          	mv	a1,a5
    1864:	00070513          	mv	a0,a4
    1868:	274000ef          	jal	ra,1adc <__divsi3>
    186c:	00050793          	mv	a5,a0
    1870:	00078713          	mv	a4,a5
    1874:	000027b7          	lui	a5,0x2
    1878:	c2e7a623          	sw	a4,-980(a5) # 1c2c <Q>
    187c:	000027b7          	lui	a5,0x2
    1880:	c1c7a703          	lw	a4,-996(a5) # 1c1c <M>
    1884:	000027b7          	lui	a5,0x2
    1888:	c187a783          	lw	a5,-1000(a5) # 1c18 <A>
    188c:	00078593          	mv	a1,a5
    1890:	00070513          	mv	a0,a4
    1894:	2cc000ef          	jal	ra,1b60 <__modsi3>
    1898:	00050793          	mv	a5,a0
    189c:	00078713          	mv	a4,a5
    18a0:	000027b7          	lui	a5,0x2
    18a4:	c2e7a823          	sw	a4,-976(a5) # 1c30 <R>
    18a8:	000027b7          	lui	a5,0x2
    18ac:	c287a783          	lw	a5,-984(a5) # 1c28 <n>
    18b0:	00078513          	mv	a0,a5
    18b4:	ae9ff0ef          	jal	ra,139c <pd>
    18b8:	00050793          	mv	a5,a0
    18bc:	00079c63          	bnez	a5,18d4 <main+0xb4>
    18c0:	000027b7          	lui	a5,0x2
    18c4:	b9878513          	addi	a0,a5,-1128 # 1b98 <__modsi3+0x38>
    18c8:	8c1ff0ef          	jal	ra,1188 <println>
    18cc:	00100793          	li	a5,1
    18d0:	1d40006f          	j	1aa4 <main+0x284>
    18d4:	000027b7          	lui	a5,0x2
    18d8:	be878513          	addi	a0,a5,-1048 # 1be8 <__modsi3+0x88>
    18dc:	8adff0ef          	jal	ra,1188 <println>
    18e0:	0037c7b7          	lui	a5,0x37c
    18e4:	4f278513          	addi	a0,a5,1266 # 37c4f2 <__heap_start+0x37a4f2>
    18e8:	9fdff0ef          	jal	ra,12e4 <initialize>
    18ec:	911ff0ef          	jal	ra,11fc <random>
    18f0:	00050793          	mv	a5,a0
    18f4:	00a00593          	li	a1,10
    18f8:	00078513          	mv	a0,a5
    18fc:	264000ef          	jal	ra,1b60 <__modsi3>
    1900:	00050793          	mv	a5,a0
    1904:	00178713          	addi	a4,a5,1
    1908:	000027b7          	lui	a5,0x2
    190c:	c2e7a223          	sw	a4,-988(a5) # 1c24 <now>
    1910:	000027b7          	lui	a5,0x2
    1914:	c247a783          	lw	a5,-988(a5) # 1c24 <now>
    1918:	00078513          	mv	a0,a5
    191c:	8a5ff0ef          	jal	ra,11c0 <outlln>
    1920:	0cc0006f          	j	19ec <main+0x1cc>
    1924:	8d9ff0ef          	jal	ra,11fc <random>
    1928:	00050793          	mv	a5,a0
    192c:	00a00593          	li	a1,10
    1930:	00078513          	mv	a0,a5
    1934:	22c000ef          	jal	ra,1b60 <__modsi3>
    1938:	00050793          	mv	a5,a0
    193c:	00178713          	addi	a4,a5,1
    1940:	000027b7          	lui	a5,0x2
    1944:	c3878693          	addi	a3,a5,-968 # 1c38 <a>
    1948:	fec42783          	lw	a5,-20(s0)
    194c:	00279793          	slli	a5,a5,0x2
    1950:	00f687b3          	add	a5,a3,a5
    1954:	00e7a023          	sw	a4,0(a5)
    1958:	0380006f          	j	1990 <main+0x170>
    195c:	8a1ff0ef          	jal	ra,11fc <random>
    1960:	00050793          	mv	a5,a0
    1964:	00a00593          	li	a1,10
    1968:	00078513          	mv	a0,a5
    196c:	1f4000ef          	jal	ra,1b60 <__modsi3>
    1970:	00050793          	mv	a5,a0
    1974:	00178713          	addi	a4,a5,1
    1978:	000027b7          	lui	a5,0x2
    197c:	c3878693          	addi	a3,a5,-968 # 1c38 <a>
    1980:	fec42783          	lw	a5,-20(s0)
    1984:	00279793          	slli	a5,a5,0x2
    1988:	00f687b3          	add	a5,a3,a5
    198c:	00e7a023          	sw	a4,0(a5)
    1990:	000027b7          	lui	a5,0x2
    1994:	c3878713          	addi	a4,a5,-968 # 1c38 <a>
    1998:	fec42783          	lw	a5,-20(s0)
    199c:	00279793          	slli	a5,a5,0x2
    19a0:	00f707b3          	add	a5,a4,a5
    19a4:	0007a703          	lw	a4,0(a5)
    19a8:	fe842783          	lw	a5,-24(s0)
    19ac:	00f70733          	add	a4,a4,a5
    19b0:	000027b7          	lui	a5,0x2
    19b4:	c287a783          	lw	a5,-984(a5) # 1c28 <n>
    19b8:	fae7c2e3          	blt	a5,a4,195c <main+0x13c>
    19bc:	000027b7          	lui	a5,0x2
    19c0:	c3878713          	addi	a4,a5,-968 # 1c38 <a>
    19c4:	fec42783          	lw	a5,-20(s0)
    19c8:	00279793          	slli	a5,a5,0x2
    19cc:	00f707b3          	add	a5,a4,a5
    19d0:	0007a783          	lw	a5,0(a5)
    19d4:	fe842703          	lw	a4,-24(s0)
    19d8:	00f707b3          	add	a5,a4,a5
    19dc:	fef42423          	sw	a5,-24(s0)
    19e0:	fec42783          	lw	a5,-20(s0)
    19e4:	00178793          	addi	a5,a5,1
    19e8:	fef42623          	sw	a5,-20(s0)
    19ec:	000027b7          	lui	a5,0x2
    19f0:	c247a783          	lw	a5,-988(a5) # 1c24 <now>
    19f4:	fff78793          	addi	a5,a5,-1
    19f8:	fec42703          	lw	a4,-20(s0)
    19fc:	f2f744e3          	blt	a4,a5,1924 <main+0x104>
    1a00:	000027b7          	lui	a5,0x2
    1a04:	c287a683          	lw	a3,-984(a5) # 1c28 <n>
    1a08:	000027b7          	lui	a5,0x2
    1a0c:	c247a783          	lw	a5,-988(a5) # 1c24 <now>
    1a10:	fff78793          	addi	a5,a5,-1
    1a14:	fe842703          	lw	a4,-24(s0)
    1a18:	40e68733          	sub	a4,a3,a4
    1a1c:	000026b7          	lui	a3,0x2
    1a20:	c3868693          	addi	a3,a3,-968 # 1c38 <a>
    1a24:	00279793          	slli	a5,a5,0x2
    1a28:	00f687b3          	add	a5,a3,a5
    1a2c:	00e7a023          	sw	a4,0(a5)
    1a30:	a05ff0ef          	jal	ra,1434 <show>
    1a34:	c31ff0ef          	jal	ra,1664 <merge>
    1a38:	03c0006f          	j	1a74 <main+0x254>
    1a3c:	000027b7          	lui	a5,0x2
    1a40:	bf878513          	addi	a0,a5,-1032 # 1bf8 <__modsi3+0x98>
    1a44:	eecff0ef          	jal	ra,1130 <print>
    1a48:	fe442783          	lw	a5,-28(s0)
    1a4c:	00178793          	addi	a5,a5,1
    1a50:	fef42223          	sw	a5,-28(s0)
    1a54:	fe442503          	lw	a0,-28(s0)
    1a58:	dd8ff0ef          	jal	ra,1030 <outl>
    1a5c:	000027b7          	lui	a5,0x2
    1a60:	c0078513          	addi	a0,a5,-1024 # 1c00 <__modsi3+0xa0>
    1a64:	f24ff0ef          	jal	ra,1188 <println>
    1a68:	d0dff0ef          	jal	ra,1774 <move>
    1a6c:	bf9ff0ef          	jal	ra,1664 <merge>
    1a70:	9c5ff0ef          	jal	ra,1434 <show>
    1a74:	a41ff0ef          	jal	ra,14b4 <win>
    1a78:	00050793          	mv	a5,a0
    1a7c:	fc0780e3          	beqz	a5,1a3c <main+0x21c>
    1a80:	000027b7          	lui	a5,0x2
    1a84:	c0478513          	addi	a0,a5,-1020 # 1c04 <__modsi3+0xa4>
    1a88:	ea8ff0ef          	jal	ra,1130 <print>
    1a8c:	fe442503          	lw	a0,-28(s0)
    1a90:	da0ff0ef          	jal	ra,1030 <outl>
    1a94:	000027b7          	lui	a5,0x2
    1a98:	c0c78513          	addi	a0,a5,-1012 # 1c0c <__modsi3+0xac>
    1a9c:	eecff0ef          	jal	ra,1188 <println>
    1aa0:	00000793          	li	a5,0
    1aa4:	00078513          	mv	a0,a5
    1aa8:	01c12083          	lw	ra,28(sp)
    1aac:	01812403          	lw	s0,24(sp)
    1ab0:	02010113          	addi	sp,sp,32
    1ab4:	00008067          	ret

00001ab8 <__mulsi3>:
    1ab8:	00050613          	mv	a2,a0
    1abc:	00000513          	li	a0,0
    1ac0:	0015f693          	andi	a3,a1,1
    1ac4:	00068463          	beqz	a3,1acc <__mulsi3+0x14>
    1ac8:	00c50533          	add	a0,a0,a2
    1acc:	0015d593          	srli	a1,a1,0x1
    1ad0:	00161613          	slli	a2,a2,0x1
    1ad4:	fe0596e3          	bnez	a1,1ac0 <__mulsi3+0x8>
    1ad8:	00008067          	ret

00001adc <__divsi3>:
    1adc:	06054063          	bltz	a0,1b3c <__umodsi3+0x10>
    1ae0:	0605c663          	bltz	a1,1b4c <__umodsi3+0x20>

00001ae4 <__udivsi3>:
    1ae4:	00058613          	mv	a2,a1
    1ae8:	00050593          	mv	a1,a0
    1aec:	fff00513          	li	a0,-1
    1af0:	02060c63          	beqz	a2,1b28 <__udivsi3+0x44>
    1af4:	00100693          	li	a3,1
    1af8:	00b67a63          	bgeu	a2,a1,1b0c <__udivsi3+0x28>
    1afc:	00c05863          	blez	a2,1b0c <__udivsi3+0x28>
    1b00:	00161613          	slli	a2,a2,0x1
    1b04:	00169693          	slli	a3,a3,0x1
    1b08:	feb66ae3          	bltu	a2,a1,1afc <__udivsi3+0x18>
    1b0c:	00000513          	li	a0,0
    1b10:	00c5e663          	bltu	a1,a2,1b1c <__udivsi3+0x38>
    1b14:	40c585b3          	sub	a1,a1,a2
    1b18:	00d56533          	or	a0,a0,a3
    1b1c:	0016d693          	srli	a3,a3,0x1
    1b20:	00165613          	srli	a2,a2,0x1
    1b24:	fe0696e3          	bnez	a3,1b10 <__udivsi3+0x2c>
    1b28:	00008067          	ret

00001b2c <__umodsi3>:
    1b2c:	00008293          	mv	t0,ra
    1b30:	fb5ff0ef          	jal	ra,1ae4 <__udivsi3>
    1b34:	00058513          	mv	a0,a1
    1b38:	00028067          	jr	t0
    1b3c:	40a00533          	neg	a0,a0
    1b40:	0005d863          	bgez	a1,1b50 <__umodsi3+0x24>
    1b44:	40b005b3          	neg	a1,a1
    1b48:	f9dff06f          	j	1ae4 <__udivsi3>
    1b4c:	40b005b3          	neg	a1,a1
    1b50:	00008293          	mv	t0,ra
    1b54:	f91ff0ef          	jal	ra,1ae4 <__udivsi3>
    1b58:	40a00533          	neg	a0,a0
    1b5c:	00028067          	jr	t0

00001b60 <__modsi3>:
    1b60:	00008293          	mv	t0,ra
    1b64:	0005ca63          	bltz	a1,1b78 <__modsi3+0x18>
    1b68:	00054c63          	bltz	a0,1b80 <__modsi3+0x20>
    1b6c:	f79ff0ef          	jal	ra,1ae4 <__udivsi3>
    1b70:	00058513          	mv	a0,a1
    1b74:	00028067          	jr	t0
    1b78:	40b005b3          	neg	a1,a1
    1b7c:	fe0558e3          	bgez	a0,1b6c <__modsi3+0xc>
    1b80:	40a00533          	neg	a0,a0
    1b84:	f61ff0ef          	jal	ra,1ae4 <__udivsi3>
    1b88:	40b00533          	neg	a0,a1
    1b8c:	00028067          	jr	t0
