
./test/test.om:     file format elf32-littleriscv


Disassembly of section .rom:

00000000 <.rom>:
   0:	00020137          	lui	sp,0x20
   4:	168010ef          	jal	ra,116c <main>
   8:	0ff00513          	li	a0,255
   c:	000306b7          	lui	a3,0x30
  10:	00a68223          	sb	a0,4(a3) # 30004 <__heap_start+0x2e004>
  14:	ff9ff06f          	j	c <outb-0xff4>

Disassembly of section .text:

00001000 <outb>:
    1000:	fe010113          	addi	sp,sp,-32 # 1ffe0 <__heap_start+0x1dfe0>
    1004:	00812e23          	sw	s0,28(sp)
    1008:	02010413          	addi	s0,sp,32
    100c:	00050793          	mv	a5,a0
    1010:	fef407a3          	sb	a5,-17(s0)
    1014:	000307b7          	lui	a5,0x30
    1018:	fef44703          	lbu	a4,-17(s0)
    101c:	00e78023          	sb	a4,0(a5) # 30000 <__heap_start+0x2e000>
    1020:	00000013          	nop
    1024:	01c12403          	lw	s0,28(sp)
    1028:	02010113          	addi	sp,sp,32
    102c:	00008067          	ret

00001030 <outl>:
    1030:	fc010113          	addi	sp,sp,-64
    1034:	02112e23          	sw	ra,60(sp)
    1038:	02812c23          	sw	s0,56(sp)
    103c:	04010413          	addi	s0,sp,64
    1040:	fca42623          	sw	a0,-52(s0)
    1044:	fcc42783          	lw	a5,-52(s0)
    1048:	fef42623          	sw	a5,-20(s0)
    104c:	fe042423          	sw	zero,-24(s0)
    1050:	fe042223          	sw	zero,-28(s0)
    1054:	fec42783          	lw	a5,-20(s0)
    1058:	0007dc63          	bgez	a5,1070 <outl+0x40>
    105c:	00100793          	li	a5,1
    1060:	fef42223          	sw	a5,-28(s0)
    1064:	fec42783          	lw	a5,-20(s0)
    1068:	40f007b3          	neg	a5,a5
    106c:	fef42623          	sw	a5,-20(s0)
    1070:	fec42783          	lw	a5,-20(s0)
    1074:	00a00593          	li	a1,10
    1078:	00078513          	mv	a0,a5
    107c:	48c000ef          	jal	ra,1508 <__modsi3>
    1080:	00050793          	mv	a5,a0
    1084:	0ff7f713          	andi	a4,a5,255
    1088:	fe842783          	lw	a5,-24(s0)
    108c:	00178693          	addi	a3,a5,1
    1090:	fed42423          	sw	a3,-24(s0)
    1094:	03070713          	addi	a4,a4,48
    1098:	0ff77713          	andi	a4,a4,255
    109c:	ff040693          	addi	a3,s0,-16
    10a0:	00f687b3          	add	a5,a3,a5
    10a4:	fee78423          	sb	a4,-24(a5)
    10a8:	fec42783          	lw	a5,-20(s0)
    10ac:	00a00593          	li	a1,10
    10b0:	00078513          	mv	a0,a5
    10b4:	3d0000ef          	jal	ra,1484 <__divsi3>
    10b8:	00050793          	mv	a5,a0
    10bc:	fef42623          	sw	a5,-20(s0)
    10c0:	fec42783          	lw	a5,-20(s0)
    10c4:	faf046e3          	bgtz	a5,1070 <outl+0x40>
    10c8:	fe442783          	lw	a5,-28(s0)
    10cc:	02078e63          	beqz	a5,1108 <outl+0xd8>
    10d0:	fe842783          	lw	a5,-24(s0)
    10d4:	00178713          	addi	a4,a5,1
    10d8:	fee42423          	sw	a4,-24(s0)
    10dc:	ff040713          	addi	a4,s0,-16
    10e0:	00f707b3          	add	a5,a4,a5
    10e4:	02d00713          	li	a4,45
    10e8:	fee78423          	sb	a4,-24(a5)
    10ec:	01c0006f          	j	1108 <outl+0xd8>
    10f0:	fe842783          	lw	a5,-24(s0)
    10f4:	ff040713          	addi	a4,s0,-16
    10f8:	00f707b3          	add	a5,a4,a5
    10fc:	fe87c783          	lbu	a5,-24(a5)
    1100:	00078513          	mv	a0,a5
    1104:	efdff0ef          	jal	ra,1000 <outb>
    1108:	fe842783          	lw	a5,-24(s0)
    110c:	fff78713          	addi	a4,a5,-1
    1110:	fee42423          	sw	a4,-24(s0)
    1114:	fc079ee3          	bnez	a5,10f0 <outl+0xc0>
    1118:	00000013          	nop
    111c:	00000013          	nop
    1120:	03c12083          	lw	ra,60(sp)
    1124:	03812403          	lw	s0,56(sp)
    1128:	04010113          	addi	sp,sp,64
    112c:	00008067          	ret

00001130 <outlln>:
    1130:	fe010113          	addi	sp,sp,-32
    1134:	00112e23          	sw	ra,28(sp)
    1138:	00812c23          	sw	s0,24(sp)
    113c:	02010413          	addi	s0,sp,32
    1140:	fea42623          	sw	a0,-20(s0)
    1144:	fec42783          	lw	a5,-20(s0)
    1148:	00078513          	mv	a0,a5
    114c:	ee5ff0ef          	jal	ra,1030 <outl>
    1150:	00a00513          	li	a0,10
    1154:	eadff0ef          	jal	ra,1000 <outb>
    1158:	00000013          	nop
    115c:	01c12083          	lw	ra,28(sp)
    1160:	01812403          	lw	s0,24(sp)
    1164:	02010113          	addi	sp,sp,32
    1168:	00008067          	ret

0000116c <main>:
    116c:	f5010113          	addi	sp,sp,-176
    1170:	0a112623          	sw	ra,172(sp)
    1174:	0a812423          	sw	s0,168(sp)
    1178:	0a912223          	sw	s1,164(sp)
    117c:	0b212023          	sw	s2,160(sp)
    1180:	09312e23          	sw	s3,156(sp)
    1184:	0b010413          	addi	s0,sp,176
    1188:	000017b7          	lui	a5,0x1
    118c:	00a00713          	li	a4,10
    1190:	52e7ac23          	sw	a4,1336(a5) # 1538 <__bss_start>
    1194:	fc042e23          	sw	zero,-36(s0)
    1198:	0280006f          	j	11c0 <main+0x54>
    119c:	fdc42783          	lw	a5,-36(s0)
    11a0:	00178713          	addi	a4,a5,1
    11a4:	fce42e23          	sw	a4,-36(s0)
    11a8:	00001737          	lui	a4,0x1
    11ac:	53c70713          	addi	a4,a4,1340 # 153c <check>
    11b0:	00279793          	slli	a5,a5,0x2
    11b4:	00f707b3          	add	a5,a4,a5
    11b8:	00100713          	li	a4,1
    11bc:	00e7a023          	sw	a4,0(a5)
    11c0:	000017b7          	lui	a5,0x1
    11c4:	5387a783          	lw	a5,1336(a5) # 1538 <__bss_start>
    11c8:	fdc42703          	lw	a4,-36(s0)
    11cc:	fce7d8e3          	bge	a5,a4,119c <main+0x30>
    11d0:	00100793          	li	a5,1
    11d4:	f8f42c23          	sw	a5,-104(s0)
    11d8:	00200793          	li	a5,2
    11dc:	fcf42e23          	sw	a5,-36(s0)
    11e0:	000017b7          	lui	a5,0x1
    11e4:	5387a783          	lw	a5,1336(a5) # 1538 <__bss_start>
    11e8:	fdc42703          	lw	a4,-36(s0)
    11ec:	24e7c663          	blt	a5,a4,1438 <main+0x2cc>
    11f0:	000017b7          	lui	a5,0x1
    11f4:	53c78713          	addi	a4,a5,1340 # 153c <check>
    11f8:	fdc42783          	lw	a5,-36(s0)
    11fc:	00279793          	slli	a5,a5,0x2
    1200:	00f707b3          	add	a5,a4,a5
    1204:	0007a783          	lw	a5,0(a5)
    1208:	04078863          	beqz	a5,1258 <main+0xec>
    120c:	000017b7          	lui	a5,0x1
    1210:	58c7a783          	lw	a5,1420(a5) # 158c <__bss_end>
    1214:	00178713          	addi	a4,a5,1
    1218:	000017b7          	lui	a5,0x1
    121c:	58e7a623          	sw	a4,1420(a5) # 158c <__bss_end>
    1220:	000017b7          	lui	a5,0x1
    1224:	58c7a783          	lw	a5,1420(a5) # 158c <__bss_end>
    1228:	00279793          	slli	a5,a5,0x2
    122c:	fe040713          	addi	a4,s0,-32
    1230:	00f707b3          	add	a5,a4,a5
    1234:	fdc42703          	lw	a4,-36(s0)
    1238:	f6e7ac23          	sw	a4,-136(a5)
    123c:	fdc42783          	lw	a5,-36(s0)
    1240:	fff78713          	addi	a4,a5,-1
    1244:	fdc42783          	lw	a5,-36(s0)
    1248:	00279793          	slli	a5,a5,0x2
    124c:	fe040693          	addi	a3,s0,-32
    1250:	00f687b3          	add	a5,a3,a5
    1254:	fae7aa23          	sw	a4,-76(a5)
    1258:	fdc42783          	lw	a5,-36(s0)
    125c:	fcf42a23          	sw	a5,-44(s0)
    1260:	00100793          	li	a5,1
    1264:	fcf42c23          	sw	a5,-40(s0)
    1268:	1600006f          	j	13c8 <main+0x25c>
    126c:	fd842783          	lw	a5,-40(s0)
    1270:	00279793          	slli	a5,a5,0x2
    1274:	fe040713          	addi	a4,s0,-32
    1278:	00f707b3          	add	a5,a4,a5
    127c:	f787a783          	lw	a5,-136(a5)
    1280:	00078593          	mv	a1,a5
    1284:	fd442503          	lw	a0,-44(s0)
    1288:	1d8000ef          	jal	ra,1460 <__mulsi3>
    128c:	00050793          	mv	a5,a0
    1290:	fcf42823          	sw	a5,-48(s0)
    1294:	000017b7          	lui	a5,0x1
    1298:	5387a783          	lw	a5,1336(a5) # 1538 <__bss_start>
    129c:	fd042703          	lw	a4,-48(s0)
    12a0:	10e7cc63          	blt	a5,a4,13b8 <main+0x24c>
    12a4:	000017b7          	lui	a5,0x1
    12a8:	53c78713          	addi	a4,a5,1340 # 153c <check>
    12ac:	fd042783          	lw	a5,-48(s0)
    12b0:	00279793          	slli	a5,a5,0x2
    12b4:	00f707b3          	add	a5,a4,a5
    12b8:	0007a023          	sw	zero,0(a5)
    12bc:	fd842783          	lw	a5,-40(s0)
    12c0:	00279793          	slli	a5,a5,0x2
    12c4:	fe040713          	addi	a4,s0,-32
    12c8:	00f707b3          	add	a5,a4,a5
    12cc:	f787a703          	lw	a4,-136(a5)
    12d0:	fd442783          	lw	a5,-44(s0)
    12d4:	00070593          	mv	a1,a4
    12d8:	00078513          	mv	a0,a5
    12dc:	22c000ef          	jal	ra,1508 <__modsi3>
    12e0:	00050793          	mv	a5,a0
    12e4:	04079c63          	bnez	a5,133c <main+0x1d0>
    12e8:	fd442783          	lw	a5,-44(s0)
    12ec:	00279793          	slli	a5,a5,0x2
    12f0:	fe040713          	addi	a4,s0,-32
    12f4:	00f707b3          	add	a5,a4,a5
    12f8:	fb47a703          	lw	a4,-76(a5)
    12fc:	fd842783          	lw	a5,-40(s0)
    1300:	00279793          	slli	a5,a5,0x2
    1304:	fe040693          	addi	a3,s0,-32
    1308:	00f687b3          	add	a5,a3,a5
    130c:	f787a783          	lw	a5,-136(a5)
    1310:	00078593          	mv	a1,a5
    1314:	00070513          	mv	a0,a4
    1318:	148000ef          	jal	ra,1460 <__mulsi3>
    131c:	00050793          	mv	a5,a0
    1320:	00078713          	mv	a4,a5
    1324:	fd042783          	lw	a5,-48(s0)
    1328:	00279793          	slli	a5,a5,0x2
    132c:	fe040693          	addi	a3,s0,-32
    1330:	00f687b3          	add	a5,a3,a5
    1334:	fae7aa23          	sw	a4,-76(a5)
    1338:	0d40006f          	j	140c <main+0x2a0>
    133c:	fd442783          	lw	a5,-44(s0)
    1340:	00279793          	slli	a5,a5,0x2
    1344:	fe040713          	addi	a4,s0,-32
    1348:	00f707b3          	add	a5,a4,a5
    134c:	fb47a483          	lw	s1,-76(a5)
    1350:	fd842783          	lw	a5,-40(s0)
    1354:	00279793          	slli	a5,a5,0x2
    1358:	fe040713          	addi	a4,s0,-32
    135c:	00f707b3          	add	a5,a4,a5
    1360:	f787a783          	lw	a5,-136(a5)
    1364:	fff78913          	addi	s2,a5,-1
    1368:	fd842783          	lw	a5,-40(s0)
    136c:	00279793          	slli	a5,a5,0x2
    1370:	fe040713          	addi	a4,s0,-32
    1374:	00f707b3          	add	a5,a4,a5
    1378:	f787a783          	lw	a5,-136(a5)
    137c:	fd442583          	lw	a1,-44(s0)
    1380:	00078513          	mv	a0,a5
    1384:	0dc000ef          	jal	ra,1460 <__mulsi3>
    1388:	00050793          	mv	a5,a0
    138c:	00078993          	mv	s3,a5
    1390:	00090593          	mv	a1,s2
    1394:	00048513          	mv	a0,s1
    1398:	0c8000ef          	jal	ra,1460 <__mulsi3>
    139c:	00050793          	mv	a5,a0
    13a0:	00078713          	mv	a4,a5
    13a4:	00299793          	slli	a5,s3,0x2
    13a8:	fe040693          	addi	a3,s0,-32
    13ac:	00f687b3          	add	a5,a3,a5
    13b0:	fae7aa23          	sw	a4,-76(a5)
    13b4:	0080006f          	j	13bc <main+0x250>
    13b8:	00000013          	nop
    13bc:	fd842783          	lw	a5,-40(s0)
    13c0:	00178793          	addi	a5,a5,1
    13c4:	fcf42c23          	sw	a5,-40(s0)
    13c8:	000017b7          	lui	a5,0x1
    13cc:	58c7a783          	lw	a5,1420(a5) # 158c <__bss_end>
    13d0:	fd842703          	lw	a4,-40(s0)
    13d4:	02e7cc63          	blt	a5,a4,140c <main+0x2a0>
    13d8:	fd842783          	lw	a5,-40(s0)
    13dc:	00279793          	slli	a5,a5,0x2
    13e0:	fe040713          	addi	a4,s0,-32
    13e4:	00f707b3          	add	a5,a4,a5
    13e8:	f787a783          	lw	a5,-136(a5)
    13ec:	fd442583          	lw	a1,-44(s0)
    13f0:	00078513          	mv	a0,a5
    13f4:	06c000ef          	jal	ra,1460 <__mulsi3>
    13f8:	00050793          	mv	a5,a0
    13fc:	00078713          	mv	a4,a5
    1400:	000017b7          	lui	a5,0x1
    1404:	5387a783          	lw	a5,1336(a5) # 1538 <__bss_start>
    1408:	e6e7d2e3          	bge	a5,a4,126c <main+0x100>
    140c:	fd442783          	lw	a5,-44(s0)
    1410:	00279793          	slli	a5,a5,0x2
    1414:	fe040713          	addi	a4,s0,-32
    1418:	00f707b3          	add	a5,a4,a5
    141c:	fb47a783          	lw	a5,-76(a5)
    1420:	00078513          	mv	a0,a5
    1424:	d0dff0ef          	jal	ra,1130 <outlln>
    1428:	fdc42783          	lw	a5,-36(s0)
    142c:	00178793          	addi	a5,a5,1
    1430:	fcf42e23          	sw	a5,-36(s0)
    1434:	dadff06f          	j	11e0 <main+0x74>
    1438:	00000013          	nop
    143c:	00000793          	li	a5,0
    1440:	00078513          	mv	a0,a5
    1444:	0ac12083          	lw	ra,172(sp)
    1448:	0a812403          	lw	s0,168(sp)
    144c:	0a412483          	lw	s1,164(sp)
    1450:	0a012903          	lw	s2,160(sp)
    1454:	09c12983          	lw	s3,156(sp)
    1458:	0b010113          	addi	sp,sp,176
    145c:	00008067          	ret

00001460 <__mulsi3>:
    1460:	00050613          	mv	a2,a0
    1464:	00000513          	li	a0,0
    1468:	0015f693          	andi	a3,a1,1
    146c:	00068463          	beqz	a3,1474 <__mulsi3+0x14>
    1470:	00c50533          	add	a0,a0,a2
    1474:	0015d593          	srli	a1,a1,0x1
    1478:	00161613          	slli	a2,a2,0x1
    147c:	fe0596e3          	bnez	a1,1468 <__mulsi3+0x8>
    1480:	00008067          	ret

00001484 <__divsi3>:
    1484:	06054063          	bltz	a0,14e4 <__umodsi3+0x10>
    1488:	0605c663          	bltz	a1,14f4 <__umodsi3+0x20>

0000148c <__udivsi3>:
    148c:	00058613          	mv	a2,a1
    1490:	00050593          	mv	a1,a0
    1494:	fff00513          	li	a0,-1
    1498:	02060c63          	beqz	a2,14d0 <__udivsi3+0x44>
    149c:	00100693          	li	a3,1
    14a0:	00b67a63          	bgeu	a2,a1,14b4 <__udivsi3+0x28>
    14a4:	00c05863          	blez	a2,14b4 <__udivsi3+0x28>
    14a8:	00161613          	slli	a2,a2,0x1
    14ac:	00169693          	slli	a3,a3,0x1
    14b0:	feb66ae3          	bltu	a2,a1,14a4 <__udivsi3+0x18>
    14b4:	00000513          	li	a0,0
    14b8:	00c5e663          	bltu	a1,a2,14c4 <__udivsi3+0x38>
    14bc:	40c585b3          	sub	a1,a1,a2
    14c0:	00d56533          	or	a0,a0,a3
    14c4:	0016d693          	srli	a3,a3,0x1
    14c8:	00165613          	srli	a2,a2,0x1
    14cc:	fe0696e3          	bnez	a3,14b8 <__udivsi3+0x2c>
    14d0:	00008067          	ret

000014d4 <__umodsi3>:
    14d4:	00008293          	mv	t0,ra
    14d8:	fb5ff0ef          	jal	ra,148c <__udivsi3>
    14dc:	00058513          	mv	a0,a1
    14e0:	00028067          	jr	t0
    14e4:	40a00533          	neg	a0,a0
    14e8:	0005d863          	bgez	a1,14f8 <__umodsi3+0x24>
    14ec:	40b005b3          	neg	a1,a1
    14f0:	f9dff06f          	j	148c <__udivsi3>
    14f4:	40b005b3          	neg	a1,a1
    14f8:	00008293          	mv	t0,ra
    14fc:	f91ff0ef          	jal	ra,148c <__udivsi3>
    1500:	40a00533          	neg	a0,a0
    1504:	00028067          	jr	t0

00001508 <__modsi3>:
    1508:	00008293          	mv	t0,ra
    150c:	0005ca63          	bltz	a1,1520 <__modsi3+0x18>
    1510:	00054c63          	bltz	a0,1528 <__modsi3+0x20>
    1514:	f79ff0ef          	jal	ra,148c <__udivsi3>
    1518:	00058513          	mv	a0,a1
    151c:	00028067          	jr	t0
    1520:	40b005b3          	neg	a1,a1
    1524:	fe0558e3          	bgez	a0,1514 <__modsi3+0xc>
    1528:	40a00533          	neg	a0,a0
    152c:	f61ff0ef          	jal	ra,148c <__udivsi3>
    1530:	40b00533          	neg	a0,a1
    1534:	00028067          	jr	t0
