
./test/test.om:     file format elf32-littleriscv


Disassembly of section .rom:

00000000 <.rom>:
   0:	00020137          	lui	sp,0x20
   4:	184010ef          	jal	ra,1188 <main>
   8:	0ff00513          	li	a0,255
   c:	000306b7          	lui	a3,0x30
  10:	00a68223          	sb	a0,4(a3) # 30004 <__heap_start+0x2c004>
  14:	ff9ff06f          	j	c <outb-0xff4>

Disassembly of section .text:

00001000 <outb>:
    1000:	fe010113          	addi	sp,sp,-32 # 1ffe0 <__heap_start+0x1bfe0>
    1004:	00812e23          	sw	s0,28(sp)
    1008:	02010413          	addi	s0,sp,32
    100c:	00050793          	mv	a5,a0
    1010:	fef407a3          	sb	a5,-17(s0)
    1014:	000307b7          	lui	a5,0x30
    1018:	fef44703          	lbu	a4,-17(s0)
    101c:	00e78023          	sb	a4,0(a5) # 30000 <__heap_start+0x2c000>
    1020:	00000013          	nop
    1024:	01c12403          	lw	s0,28(sp)
    1028:	02010113          	addi	sp,sp,32
    102c:	00008067          	ret

00001030 <outl>:
    1030:	fc010113          	addi	sp,sp,-64
    1034:	02112e23          	sw	ra,60(sp)
    1038:	02812c23          	sw	s0,56(sp)
    103c:	04010413          	addi	s0,sp,64
    1040:	fca42623          	sw	a0,-52(s0)
    1044:	fcc42783          	lw	a5,-52(s0)
    1048:	fef42623          	sw	a5,-20(s0)
    104c:	fe042423          	sw	zero,-24(s0)
    1050:	fe042223          	sw	zero,-28(s0)
    1054:	fec42783          	lw	a5,-20(s0)
    1058:	0007dc63          	bgez	a5,1070 <outl+0x40>
    105c:	00100793          	li	a5,1
    1060:	fef42223          	sw	a5,-28(s0)
    1064:	fec42783          	lw	a5,-20(s0)
    1068:	40f007b3          	neg	a5,a5
    106c:	fef42623          	sw	a5,-20(s0)
    1070:	fec42783          	lw	a5,-20(s0)
    1074:	00a00593          	li	a1,10
    1078:	00078513          	mv	a0,a5
    107c:	38c000ef          	jal	ra,1408 <__modsi3>
    1080:	00050793          	mv	a5,a0
    1084:	0ff7f713          	andi	a4,a5,255
    1088:	fe842783          	lw	a5,-24(s0)
    108c:	00178693          	addi	a3,a5,1
    1090:	fed42423          	sw	a3,-24(s0)
    1094:	03070713          	addi	a4,a4,48
    1098:	0ff77713          	andi	a4,a4,255
    109c:	ff040693          	addi	a3,s0,-16
    10a0:	00f687b3          	add	a5,a3,a5
    10a4:	fee78423          	sb	a4,-24(a5)
    10a8:	fec42783          	lw	a5,-20(s0)
    10ac:	00a00593          	li	a1,10
    10b0:	00078513          	mv	a0,a5
    10b4:	2d0000ef          	jal	ra,1384 <__divsi3>
    10b8:	00050793          	mv	a5,a0
    10bc:	fef42623          	sw	a5,-20(s0)
    10c0:	fec42783          	lw	a5,-20(s0)
    10c4:	faf046e3          	bgtz	a5,1070 <outl+0x40>
    10c8:	fe442783          	lw	a5,-28(s0)
    10cc:	02078e63          	beqz	a5,1108 <outl+0xd8>
    10d0:	fe842783          	lw	a5,-24(s0)
    10d4:	00178713          	addi	a4,a5,1
    10d8:	fee42423          	sw	a4,-24(s0)
    10dc:	ff040713          	addi	a4,s0,-16
    10e0:	00f707b3          	add	a5,a4,a5
    10e4:	02d00713          	li	a4,45
    10e8:	fee78423          	sb	a4,-24(a5)
    10ec:	01c0006f          	j	1108 <outl+0xd8>
    10f0:	fe842783          	lw	a5,-24(s0)
    10f4:	ff040713          	addi	a4,s0,-16
    10f8:	00f707b3          	add	a5,a4,a5
    10fc:	fe87c783          	lbu	a5,-24(a5)
    1100:	00078513          	mv	a0,a5
    1104:	efdff0ef          	jal	ra,1000 <outb>
    1108:	fe842783          	lw	a5,-24(s0)
    110c:	fff78713          	addi	a4,a5,-1
    1110:	fee42423          	sw	a4,-24(s0)
    1114:	fc079ee3          	bnez	a5,10f0 <outl+0xc0>
    1118:	00000013          	nop
    111c:	00000013          	nop
    1120:	03c12083          	lw	ra,60(sp)
    1124:	03812403          	lw	s0,56(sp)
    1128:	04010113          	addi	sp,sp,64
    112c:	00008067          	ret

00001130 <print>:
    1130:	fe010113          	addi	sp,sp,-32
    1134:	00112e23          	sw	ra,28(sp)
    1138:	00812c23          	sw	s0,24(sp)
    113c:	02010413          	addi	s0,sp,32
    1140:	fea42623          	sw	a0,-20(s0)
    1144:	0200006f          	j	1164 <print+0x34>
    1148:	fec42783          	lw	a5,-20(s0)
    114c:	0007c783          	lbu	a5,0(a5)
    1150:	00078513          	mv	a0,a5
    1154:	eadff0ef          	jal	ra,1000 <outb>
    1158:	fec42783          	lw	a5,-20(s0)
    115c:	00178793          	addi	a5,a5,1
    1160:	fef42623          	sw	a5,-20(s0)
    1164:	fec42783          	lw	a5,-20(s0)
    1168:	0007c783          	lbu	a5,0(a5)
    116c:	fc079ee3          	bnez	a5,1148 <print+0x18>
    1170:	00000013          	nop
    1174:	00000013          	nop
    1178:	01c12083          	lw	ra,28(sp)
    117c:	01812403          	lw	s0,24(sp)
    1180:	02010113          	addi	sp,sp,32
    1184:	00008067          	ret

00001188 <main>:
    1188:	fd010113          	addi	sp,sp,-48
    118c:	02112623          	sw	ra,44(sp)
    1190:	02812423          	sw	s0,40(sp)
    1194:	02912223          	sw	s1,36(sp)
    1198:	03010413          	addi	s0,sp,48
    119c:	3e800793          	li	a5,1000
    11a0:	fcf42c23          	sw	a5,-40(s0)
    11a4:	fe042623          	sw	zero,-20(s0)
    11a8:	11800793          	li	a5,280
    11ac:	fef42423          	sw	a5,-24(s0)
    11b0:	fe042223          	sw	zero,-28(s0)
    11b4:	fe042023          	sw	zero,-32(s0)
    11b8:	fc042e23          	sw	zero,-36(s0)
    11bc:	03c0006f          	j	11f8 <main+0x70>
    11c0:	fec42483          	lw	s1,-20(s0)
    11c4:	00148793          	addi	a5,s1,1
    11c8:	fef42623          	sw	a5,-20(s0)
    11cc:	fd842783          	lw	a5,-40(s0)
    11d0:	00500593          	li	a1,5
    11d4:	00078513          	mv	a0,a5
    11d8:	1ac000ef          	jal	ra,1384 <__divsi3>
    11dc:	00050793          	mv	a5,a0
    11e0:	00078693          	mv	a3,a5
    11e4:	000017b7          	lui	a5,0x1
    11e8:	43c78713          	addi	a4,a5,1084 # 143c <f>
    11ec:	00249793          	slli	a5,s1,0x2
    11f0:	00f707b3          	add	a5,a4,a5
    11f4:	00d7a023          	sw	a3,0(a5)
    11f8:	fec42703          	lw	a4,-20(s0)
    11fc:	fe842783          	lw	a5,-24(s0)
    1200:	fcf710e3          	bne	a4,a5,11c0 <main+0x38>
    1204:	fe042223          	sw	zero,-28(s0)
    1208:	fe842783          	lw	a5,-24(s0)
    120c:	00179793          	slli	a5,a5,0x1
    1210:	fcf42e23          	sw	a5,-36(s0)
    1214:	fdc42783          	lw	a5,-36(s0)
    1218:	10078e63          	beqz	a5,1334 <main+0x1ac>
    121c:	fe842783          	lw	a5,-24(s0)
    1220:	fef42623          	sw	a5,-20(s0)
    1224:	000017b7          	lui	a5,0x1
    1228:	43c78713          	addi	a4,a5,1084 # 143c <f>
    122c:	fec42783          	lw	a5,-20(s0)
    1230:	00279793          	slli	a5,a5,0x2
    1234:	00f707b3          	add	a5,a4,a5
    1238:	0007a783          	lw	a5,0(a5)
    123c:	fd842583          	lw	a1,-40(s0)
    1240:	00078513          	mv	a0,a5
    1244:	11c000ef          	jal	ra,1360 <__mulsi3>
    1248:	00050793          	mv	a5,a0
    124c:	00078713          	mv	a4,a5
    1250:	fe442783          	lw	a5,-28(s0)
    1254:	00e787b3          	add	a5,a5,a4
    1258:	fef42223          	sw	a5,-28(s0)
    125c:	fdc42783          	lw	a5,-36(s0)
    1260:	fff78793          	addi	a5,a5,-1
    1264:	fcf42e23          	sw	a5,-36(s0)
    1268:	fe442783          	lw	a5,-28(s0)
    126c:	fdc42583          	lw	a1,-36(s0)
    1270:	00078513          	mv	a0,a5
    1274:	194000ef          	jal	ra,1408 <__modsi3>
    1278:	00050793          	mv	a5,a0
    127c:	00078693          	mv	a3,a5
    1280:	000017b7          	lui	a5,0x1
    1284:	43c78713          	addi	a4,a5,1084 # 143c <f>
    1288:	fec42783          	lw	a5,-20(s0)
    128c:	00279793          	slli	a5,a5,0x2
    1290:	00f707b3          	add	a5,a4,a5
    1294:	00d7a023          	sw	a3,0(a5)
    1298:	fdc42783          	lw	a5,-36(s0)
    129c:	fff78713          	addi	a4,a5,-1
    12a0:	fce42e23          	sw	a4,-36(s0)
    12a4:	00078593          	mv	a1,a5
    12a8:	fe442503          	lw	a0,-28(s0)
    12ac:	0d8000ef          	jal	ra,1384 <__divsi3>
    12b0:	00050793          	mv	a5,a0
    12b4:	fef42223          	sw	a5,-28(s0)
    12b8:	fec42783          	lw	a5,-20(s0)
    12bc:	fff78793          	addi	a5,a5,-1
    12c0:	fef42623          	sw	a5,-20(s0)
    12c4:	fec42783          	lw	a5,-20(s0)
    12c8:	00078e63          	beqz	a5,12e4 <main+0x15c>
    12cc:	fec42583          	lw	a1,-20(s0)
    12d0:	fe442503          	lw	a0,-28(s0)
    12d4:	08c000ef          	jal	ra,1360 <__mulsi3>
    12d8:	00050793          	mv	a5,a0
    12dc:	fef42223          	sw	a5,-28(s0)
    12e0:	f45ff06f          	j	1224 <main+0x9c>
    12e4:	00000013          	nop
    12e8:	fe842783          	lw	a5,-24(s0)
    12ec:	ff278793          	addi	a5,a5,-14
    12f0:	fef42423          	sw	a5,-24(s0)
    12f4:	fd842583          	lw	a1,-40(s0)
    12f8:	fe442503          	lw	a0,-28(s0)
    12fc:	088000ef          	jal	ra,1384 <__divsi3>
    1300:	00050793          	mv	a5,a0
    1304:	00078713          	mv	a4,a5
    1308:	fe042783          	lw	a5,-32(s0)
    130c:	00f707b3          	add	a5,a4,a5
    1310:	00078513          	mv	a0,a5
    1314:	d1dff0ef          	jal	ra,1030 <outl>
    1318:	fe442783          	lw	a5,-28(s0)
    131c:	fd842583          	lw	a1,-40(s0)
    1320:	00078513          	mv	a0,a5
    1324:	0e4000ef          	jal	ra,1408 <__modsi3>
    1328:	00050793          	mv	a5,a0
    132c:	fef42023          	sw	a5,-32(s0)
    1330:	ed5ff06f          	j	1204 <main+0x7c>
    1334:	00000013          	nop
    1338:	000017b7          	lui	a5,0x1
    133c:	43878513          	addi	a0,a5,1080 # 1438 <__modsi3+0x30>
    1340:	df1ff0ef          	jal	ra,1130 <print>
    1344:	00000793          	li	a5,0
    1348:	00078513          	mv	a0,a5
    134c:	02c12083          	lw	ra,44(sp)
    1350:	02812403          	lw	s0,40(sp)
    1354:	02412483          	lw	s1,36(sp)
    1358:	03010113          	addi	sp,sp,48
    135c:	00008067          	ret

00001360 <__mulsi3>:
    1360:	00050613          	mv	a2,a0
    1364:	00000513          	li	a0,0
    1368:	0015f693          	andi	a3,a1,1
    136c:	00068463          	beqz	a3,1374 <__mulsi3+0x14>
    1370:	00c50533          	add	a0,a0,a2
    1374:	0015d593          	srli	a1,a1,0x1
    1378:	00161613          	slli	a2,a2,0x1
    137c:	fe0596e3          	bnez	a1,1368 <__mulsi3+0x8>
    1380:	00008067          	ret

00001384 <__divsi3>:
    1384:	06054063          	bltz	a0,13e4 <__umodsi3+0x10>
    1388:	0605c663          	bltz	a1,13f4 <__umodsi3+0x20>

0000138c <__udivsi3>:
    138c:	00058613          	mv	a2,a1
    1390:	00050593          	mv	a1,a0
    1394:	fff00513          	li	a0,-1
    1398:	02060c63          	beqz	a2,13d0 <__udivsi3+0x44>
    139c:	00100693          	li	a3,1
    13a0:	00b67a63          	bgeu	a2,a1,13b4 <__udivsi3+0x28>
    13a4:	00c05863          	blez	a2,13b4 <__udivsi3+0x28>
    13a8:	00161613          	slli	a2,a2,0x1
    13ac:	00169693          	slli	a3,a3,0x1
    13b0:	feb66ae3          	bltu	a2,a1,13a4 <__udivsi3+0x18>
    13b4:	00000513          	li	a0,0
    13b8:	00c5e663          	bltu	a1,a2,13c4 <__udivsi3+0x38>
    13bc:	40c585b3          	sub	a1,a1,a2
    13c0:	00d56533          	or	a0,a0,a3
    13c4:	0016d693          	srli	a3,a3,0x1
    13c8:	00165613          	srli	a2,a2,0x1
    13cc:	fe0696e3          	bnez	a3,13b8 <__udivsi3+0x2c>
    13d0:	00008067          	ret

000013d4 <__umodsi3>:
    13d4:	00008293          	mv	t0,ra
    13d8:	fb5ff0ef          	jal	ra,138c <__udivsi3>
    13dc:	00058513          	mv	a0,a1
    13e0:	00028067          	jr	t0
    13e4:	40a00533          	neg	a0,a0
    13e8:	0005d863          	bgez	a1,13f8 <__umodsi3+0x24>
    13ec:	40b005b3          	neg	a1,a1
    13f0:	f9dff06f          	j	138c <__udivsi3>
    13f4:	40b005b3          	neg	a1,a1
    13f8:	00008293          	mv	t0,ra
    13fc:	f91ff0ef          	jal	ra,138c <__udivsi3>
    1400:	40a00533          	neg	a0,a0
    1404:	00028067          	jr	t0

00001408 <__modsi3>:
    1408:	00008293          	mv	t0,ra
    140c:	0005ca63          	bltz	a1,1420 <__modsi3+0x18>
    1410:	00054c63          	bltz	a0,1428 <__modsi3+0x20>
    1414:	f79ff0ef          	jal	ra,138c <__udivsi3>
    1418:	00058513          	mv	a0,a1
    141c:	00028067          	jr	t0
    1420:	40b005b3          	neg	a1,a1
    1424:	fe0558e3          	bgez	a0,1414 <__modsi3+0xc>
    1428:	40a00533          	neg	a0,a0
    142c:	f61ff0ef          	jal	ra,138c <__udivsi3>
    1430:	40b00533          	neg	a0,a1
    1434:	00028067          	jr	t0
