
./test/test.om:     file format elf32-littleriscv


Disassembly of section .rom:

00000000 <.rom>:
   0:	00020137          	lui	sp,0x20
   4:	0b0010ef          	jal	ra,10b4 <main>
   8:	0ff00513          	li	a0,255
   c:	000306b7          	lui	a3,0x30
  10:	00a68223          	sb	a0,4(a3) # 30004 <__heap_start+0x2e004>
  14:	ff9ff06f          	j	c <__divsi3-0xff4>

Disassembly of section .text:

00001000 <__divsi3>:
    1000:	06054063          	bltz	a0,1060 <__umodsi3+0x10>
    1004:	0605c663          	bltz	a1,1070 <__umodsi3+0x20>

00001008 <__udivsi3>:
    1008:	00058613          	mv	a2,a1
    100c:	00050593          	mv	a1,a0
    1010:	fff00513          	li	a0,-1
    1014:	02060c63          	beqz	a2,104c <__udivsi3+0x44>
    1018:	00100693          	li	a3,1
    101c:	00b67a63          	bgeu	a2,a1,1030 <__udivsi3+0x28>
    1020:	00c05863          	blez	a2,1030 <__udivsi3+0x28>
    1024:	00161613          	slli	a2,a2,0x1
    1028:	00169693          	slli	a3,a3,0x1
    102c:	feb66ae3          	bltu	a2,a1,1020 <__udivsi3+0x18>
    1030:	00000513          	li	a0,0
    1034:	00c5e663          	bltu	a1,a2,1040 <__udivsi3+0x38>
    1038:	40c585b3          	sub	a1,a1,a2
    103c:	00d56533          	or	a0,a0,a3
    1040:	0016d693          	srli	a3,a3,0x1
    1044:	00165613          	srli	a2,a2,0x1
    1048:	fe0696e3          	bnez	a3,1034 <__udivsi3+0x2c>
    104c:	00008067          	ret

00001050 <__umodsi3>:
    1050:	00008293          	mv	t0,ra
    1054:	fb5ff0ef          	jal	ra,1008 <__udivsi3>
    1058:	00058513          	mv	a0,a1
    105c:	00028067          	jr	t0
    1060:	40a00533          	neg	a0,a0
    1064:	0005d863          	bgez	a1,1074 <__umodsi3+0x24>
    1068:	40b005b3          	neg	a1,a1
    106c:	f9dff06f          	j	1008 <__udivsi3>
    1070:	40b005b3          	neg	a1,a1
    1074:	00008293          	mv	t0,ra
    1078:	f91ff0ef          	jal	ra,1008 <__udivsi3>
    107c:	40a00533          	neg	a0,a0
    1080:	00028067          	jr	t0

00001084 <__modsi3>:
    1084:	00008293          	mv	t0,ra
    1088:	0005ca63          	bltz	a1,109c <__modsi3+0x18>
    108c:	00054c63          	bltz	a0,10a4 <__modsi3+0x20>
    1090:	f79ff0ef          	jal	ra,1008 <__udivsi3>
    1094:	00058513          	mv	a0,a1
    1098:	00028067          	jr	t0
    109c:	40b005b3          	neg	a1,a1
    10a0:	fe0558e3          	bgez	a0,1090 <__modsi3+0xc>
    10a4:	40a00533          	neg	a0,a0
    10a8:	f61ff0ef          	jal	ra,1008 <__udivsi3>
    10ac:	40b00533          	neg	a0,a1
    10b0:	00028067          	jr	t0

Disassembly of section .text.startup:

000010b4 <main>:
    10b4:	000017b7          	lui	a5,0x1
    10b8:	fd010113          	addi	sp,sp,-48 # 1ffd0 <__heap_start+0x1dfd0>
    10bc:	2e47a883          	lw	a7,740(a5) # 12e4 <h>
    10c0:	00001fb7          	lui	t6,0x1
    10c4:	000017b7          	lui	a5,0x1
    10c8:	2e07a303          	lw	t1,736(a5) # 12e0 <i>
    10cc:	02912223          	sw	s1,36(sp)
    10d0:	000017b7          	lui	a5,0x1
    10d4:	2ecfa483          	lw	s1,748(t6) # 12ec <__bss_end>
    10d8:	2dc7ae03          	lw	t3,732(a5) # 12dc <j>
    10dc:	000017b7          	lui	a5,0x1
    10e0:	2d87ae83          	lw	t4,728(a5) # 12d8 <__bss_start>
    10e4:	00600713          	li	a4,6
    10e8:	000017b7          	lui	a5,0x1
    10ec:	2ee7a423          	sw	a4,744(a5) # 12e8 <N>
    10f0:	02112623          	sw	ra,44(sp)
    10f4:	02812423          	sw	s0,40(sp)
    10f8:	03212023          	sw	s2,32(sp)
    10fc:	01312e23          	sw	s3,28(sp)
    1100:	01412c23          	sw	s4,24(sp)
    1104:	01512a23          	sw	s5,20(sp)
    1108:	01612823          	sw	s6,16(sp)
    110c:	00048f13          	mv	t5,s1
    1110:	00000293          	li	t0,0
    1114:	00100793          	li	a5,1
    1118:	00700593          	li	a1,7
    111c:	00100693          	li	a3,1
    1120:	00100513          	li	a0,1
    1124:	00100813          	li	a6,1
    1128:	00100613          	li	a2,1
    112c:	00100713          	li	a4,1
    1130:	0ad78663          	beq	a5,a3,11dc <main+0x128>
    1134:	0aa78463          	beq	a5,a0,11dc <main+0x128>
    1138:	0b078263          	beq	a5,a6,11dc <main+0x128>
    113c:	0ac78063          	beq	a5,a2,11dc <main+0x128>
    1140:	08e78e63          	beq	a5,a4,11dc <main+0x128>
    1144:	08f88c63          	beq	a7,a5,11dc <main+0x128>
    1148:	08f30a63          	beq	t1,a5,11dc <main+0x128>
    114c:	08fe0863          	beq	t3,a5,11dc <main+0x128>
    1150:	08fe8663          	beq	t4,a5,11dc <main+0x128>
    1154:	08a68463          	beq	a3,a0,11dc <main+0x128>
    1158:	09068263          	beq	a3,a6,11dc <main+0x128>
    115c:	08c68063          	beq	a3,a2,11dc <main+0x128>
    1160:	06e68e63          	beq	a3,a4,11dc <main+0x128>
    1164:	06d88c63          	beq	a7,a3,11dc <main+0x128>
    1168:	06d30a63          	beq	t1,a3,11dc <main+0x128>
    116c:	06de0863          	beq	t3,a3,11dc <main+0x128>
    1170:	06de8663          	beq	t4,a3,11dc <main+0x128>
    1174:	07050463          	beq	a0,a6,11dc <main+0x128>
    1178:	06c50263          	beq	a0,a2,11dc <main+0x128>
    117c:	06e50063          	beq	a0,a4,11dc <main+0x128>
    1180:	04a88e63          	beq	a7,a0,11dc <main+0x128>
    1184:	04a30c63          	beq	t1,a0,11dc <main+0x128>
    1188:	04ae0a63          	beq	t3,a0,11dc <main+0x128>
    118c:	04ae8863          	beq	t4,a0,11dc <main+0x128>
    1190:	04c80663          	beq	a6,a2,11dc <main+0x128>
    1194:	04e80463          	beq	a6,a4,11dc <main+0x128>
    1198:	05088263          	beq	a7,a6,11dc <main+0x128>
    119c:	05030063          	beq	t1,a6,11dc <main+0x128>
    11a0:	030e0e63          	beq	t3,a6,11dc <main+0x128>
    11a4:	030e8c63          	beq	t4,a6,11dc <main+0x128>
    11a8:	02e60a63          	beq	a2,a4,11dc <main+0x128>
    11ac:	02c88863          	beq	a7,a2,11dc <main+0x128>
    11b0:	02c30663          	beq	t1,a2,11dc <main+0x128>
    11b4:	02ce0463          	beq	t3,a2,11dc <main+0x128>
    11b8:	02ce8263          	beq	t4,a2,11dc <main+0x128>
    11bc:	02e88063          	beq	a7,a4,11dc <main+0x128>
    11c0:	00e30e63          	beq	t1,a4,11dc <main+0x128>
    11c4:	00ee0c63          	beq	t3,a4,11dc <main+0x128>
    11c8:	00ee8a63          	beq	t4,a4,11dc <main+0x128>
    11cc:	01c30863          	beq	t1,t3,11dc <main+0x128>
    11d0:	01d88663          	beq	a7,t4,11dc <main+0x128>
    11d4:	001f0f13          	addi	t5,t5,1
    11d8:	00100293          	li	t0,1
    11dc:	00170713          	addi	a4,a4,1
    11e0:	f4b718e3          	bne	a4,a1,1130 <main+0x7c>
    11e4:	00160613          	addi	a2,a2,1
    11e8:	f4e612e3          	bne	a2,a4,112c <main+0x78>
    11ec:	00180813          	addi	a6,a6,1
    11f0:	f2c81ce3          	bne	a6,a2,1128 <main+0x74>
    11f4:	00150513          	addi	a0,a0,1
    11f8:	f30516e3          	bne	a0,a6,1124 <main+0x70>
    11fc:	00168693          	addi	a3,a3,1
    1200:	f2a690e3          	bne	a3,a0,1120 <main+0x6c>
    1204:	00178793          	addi	a5,a5,1
    1208:	f0d79ae3          	bne	a5,a3,111c <main+0x68>
    120c:	0c029063          	bnez	t0,12cc <main+0x218>
    1210:	00000a13          	li	s4,0
    1214:	0004d663          	bgez	s1,1220 <main+0x16c>
    1218:	409004b3          	neg	s1,s1
    121c:	00100a13          	li	s4,1
    1220:	00000993          	li	s3,0
    1224:	00410913          	addi	s2,sp,4
    1228:	00900a93          	li	s5,9
    122c:	0080006f          	j	1234 <main+0x180>
    1230:	00040993          	mv	s3,s0
    1234:	00a00593          	li	a1,10
    1238:	00048513          	mv	a0,s1
    123c:	e49ff0ef          	jal	ra,1084 <__modsi3>
    1240:	00198413          	addi	s0,s3,1
    1244:	03050793          	addi	a5,a0,48
    1248:	00890733          	add	a4,s2,s0
    124c:	00048513          	mv	a0,s1
    1250:	00a00593          	li	a1,10
    1254:	fef70fa3          	sb	a5,-1(a4)
    1258:	00048b13          	mv	s6,s1
    125c:	da5ff0ef          	jal	ra,1000 <__divsi3>
    1260:	00050493          	mv	s1,a0
    1264:	fd6ac6e3          	blt	s5,s6,1230 <main+0x17c>
    1268:	000a0c63          	beqz	s4,1280 <main+0x1cc>
    126c:	01010793          	addi	a5,sp,16
    1270:	00878433          	add	s0,a5,s0
    1274:	02d00793          	li	a5,45
    1278:	fef40a23          	sb	a5,-12(s0)
    127c:	00298413          	addi	s0,s3,2
    1280:	00890433          	add	s0,s2,s0
    1284:	000307b7          	lui	a5,0x30
    1288:	fff44703          	lbu	a4,-1(s0)
    128c:	fff40413          	addi	s0,s0,-1
    1290:	00e78023          	sb	a4,0(a5) # 30000 <__heap_start+0x2e000>
    1294:	fe891ae3          	bne	s2,s0,1288 <main+0x1d4>
    1298:	00a00713          	li	a4,10
    129c:	00e78023          	sb	a4,0(a5)
    12a0:	02c12083          	lw	ra,44(sp)
    12a4:	02812403          	lw	s0,40(sp)
    12a8:	02412483          	lw	s1,36(sp)
    12ac:	02012903          	lw	s2,32(sp)
    12b0:	01c12983          	lw	s3,28(sp)
    12b4:	01812a03          	lw	s4,24(sp)
    12b8:	01412a83          	lw	s5,20(sp)
    12bc:	01012b03          	lw	s6,16(sp)
    12c0:	00000513          	li	a0,0
    12c4:	03010113          	addi	sp,sp,48
    12c8:	00008067          	ret
    12cc:	2fefa623          	sw	t5,748(t6)
    12d0:	000f0493          	mv	s1,t5
    12d4:	f3dff06f          	j	1210 <main+0x15c>
