
./test/test.om:     file format elf32-littleriscv


Disassembly of section .rom:

00000000 <.rom>:
   0:	00020137          	lui	sp,0x20
   4:	1b4010ef          	jal	ra,11b8 <main>
   8:	0ff00513          	li	a0,255
   c:	000306b7          	lui	a3,0x30
  10:	00a68223          	sb	a0,4(a3) # 30004 <__heap_start+0x2e004>
  14:	ff9ff06f          	j	c <outl-0xff4>

Disassembly of section .text:

00001000 <outl>:
    1000:	fd010113          	addi	sp,sp,-48 # 1ffd0 <__heap_start+0x1dfd0>
    1004:	02912223          	sw	s1,36(sp)
    1008:	01612823          	sw	s6,16(sp)
    100c:	02112623          	sw	ra,44(sp)
    1010:	02812423          	sw	s0,40(sp)
    1014:	03212023          	sw	s2,32(sp)
    1018:	01312e23          	sw	s3,28(sp)
    101c:	01412c23          	sw	s4,24(sp)
    1020:	01512a23          	sw	s5,20(sp)
    1024:	00050493          	mv	s1,a0
    1028:	00000b13          	li	s6,0
    102c:	00055663          	bgez	a0,1038 <outl+0x38>
    1030:	40a004b3          	neg	s1,a0
    1034:	00100b13          	li	s6,1
    1038:	00000413          	li	s0,0
    103c:	00410913          	addi	s2,sp,4
    1040:	00900a13          	li	s4,9
    1044:	00a00593          	li	a1,10
    1048:	00048513          	mv	a0,s1
    104c:	13c000ef          	jal	ra,1188 <__modsi3>
    1050:	00040a93          	mv	s5,s0
    1054:	00140413          	addi	s0,s0,1
    1058:	03050793          	addi	a5,a0,48
    105c:	00890733          	add	a4,s2,s0
    1060:	00048513          	mv	a0,s1
    1064:	00a00593          	li	a1,10
    1068:	fef70fa3          	sb	a5,-1(a4)
    106c:	00048993          	mv	s3,s1
    1070:	094000ef          	jal	ra,1104 <__divsi3>
    1074:	00050493          	mv	s1,a0
    1078:	fd3a46e3          	blt	s4,s3,1044 <outl+0x44>
    107c:	000b0c63          	beqz	s6,1094 <outl+0x94>
    1080:	01010793          	addi	a5,sp,16
    1084:	00878433          	add	s0,a5,s0
    1088:	02d00793          	li	a5,45
    108c:	fef40a23          	sb	a5,-12(s0)
    1090:	002a8413          	addi	s0,s5,2
    1094:	00890433          	add	s0,s2,s0
    1098:	00030737          	lui	a4,0x30
    109c:	fff44783          	lbu	a5,-1(s0)
    10a0:	fff40413          	addi	s0,s0,-1
    10a4:	00f70023          	sb	a5,0(a4) # 30000 <__heap_start+0x2e000>
    10a8:	fe891ae3          	bne	s2,s0,109c <outl+0x9c>
    10ac:	02c12083          	lw	ra,44(sp)
    10b0:	02812403          	lw	s0,40(sp)
    10b4:	02412483          	lw	s1,36(sp)
    10b8:	02012903          	lw	s2,32(sp)
    10bc:	01c12983          	lw	s3,28(sp)
    10c0:	01812a03          	lw	s4,24(sp)
    10c4:	01412a83          	lw	s5,20(sp)
    10c8:	01012b03          	lw	s6,16(sp)
    10cc:	03010113          	addi	sp,sp,48
    10d0:	00008067          	ret

000010d4 <gcd>:
    10d4:	ff010113          	addi	sp,sp,-16
    10d8:	00112623          	sw	ra,12(sp)
    10dc:	00812423          	sw	s0,8(sp)
    10e0:	00058413          	mv	s0,a1
    10e4:	0a4000ef          	jal	ra,1188 <__modsi3>
    10e8:	00050593          	mv	a1,a0
    10ec:	00040513          	mv	a0,s0
    10f0:	fe0598e3          	bnez	a1,10e0 <gcd+0xc>
    10f4:	00c12083          	lw	ra,12(sp)
    10f8:	00812403          	lw	s0,8(sp)
    10fc:	01010113          	addi	sp,sp,16
    1100:	00008067          	ret

00001104 <__divsi3>:
    1104:	06054063          	bltz	a0,1164 <__umodsi3+0x10>
    1108:	0605c663          	bltz	a1,1174 <__umodsi3+0x20>

0000110c <__udivsi3>:
    110c:	00058613          	mv	a2,a1
    1110:	00050593          	mv	a1,a0
    1114:	fff00513          	li	a0,-1
    1118:	02060c63          	beqz	a2,1150 <__udivsi3+0x44>
    111c:	00100693          	li	a3,1
    1120:	00b67a63          	bgeu	a2,a1,1134 <__udivsi3+0x28>
    1124:	00c05863          	blez	a2,1134 <__udivsi3+0x28>
    1128:	00161613          	slli	a2,a2,0x1
    112c:	00169693          	slli	a3,a3,0x1
    1130:	feb66ae3          	bltu	a2,a1,1124 <__udivsi3+0x18>
    1134:	00000513          	li	a0,0
    1138:	00c5e663          	bltu	a1,a2,1144 <__udivsi3+0x38>
    113c:	40c585b3          	sub	a1,a1,a2
    1140:	00d56533          	or	a0,a0,a3
    1144:	0016d693          	srli	a3,a3,0x1
    1148:	00165613          	srli	a2,a2,0x1
    114c:	fe0696e3          	bnez	a3,1138 <__udivsi3+0x2c>
    1150:	00008067          	ret

00001154 <__umodsi3>:
    1154:	00008293          	mv	t0,ra
    1158:	fb5ff0ef          	jal	ra,110c <__udivsi3>
    115c:	00058513          	mv	a0,a1
    1160:	00028067          	jr	t0
    1164:	40a00533          	neg	a0,a0
    1168:	0005d863          	bgez	a1,1178 <__umodsi3+0x24>
    116c:	40b005b3          	neg	a1,a1
    1170:	f9dff06f          	j	110c <__udivsi3>
    1174:	40b005b3          	neg	a1,a1
    1178:	00008293          	mv	t0,ra
    117c:	f91ff0ef          	jal	ra,110c <__udivsi3>
    1180:	40a00533          	neg	a0,a0
    1184:	00028067          	jr	t0

00001188 <__modsi3>:
    1188:	00008293          	mv	t0,ra
    118c:	0005ca63          	bltz	a1,11a0 <__modsi3+0x18>
    1190:	00054c63          	bltz	a0,11a8 <__modsi3+0x20>
    1194:	f79ff0ef          	jal	ra,110c <__udivsi3>
    1198:	00058513          	mv	a0,a1
    119c:	00028067          	jr	t0
    11a0:	40b005b3          	neg	a1,a1
    11a4:	fe0558e3          	bgez	a0,1194 <__modsi3+0xc>
    11a8:	40a00533          	neg	a0,a0
    11ac:	f61ff0ef          	jal	ra,110c <__udivsi3>
    11b0:	40b00533          	neg	a0,a1
    11b4:	00028067          	jr	t0

Disassembly of section .text.startup:

000011b8 <main>:
    11b8:	ff010113          	addi	sp,sp,-16
    11bc:	00100513          	li	a0,1
    11c0:	00112623          	sw	ra,12(sp)
    11c4:	00812423          	sw	s0,8(sp)
    11c8:	e39ff0ef          	jal	ra,1000 <outl>
    11cc:	000307b7          	lui	a5,0x30
    11d0:	00a00713          	li	a4,10
    11d4:	000015b7          	lui	a1,0x1
    11d8:	00009537          	lui	a0,0x9
    11dc:	00e78023          	sb	a4,0(a5) # 30000 <__heap_start+0x2e000>
    11e0:	c0f58593          	addi	a1,a1,-1009 # c0f <outl-0x3f1>
    11e4:	8aa50513          	addi	a0,a0,-1878 # 88aa <__heap_start+0x68aa>
    11e8:	00058413          	mv	s0,a1
    11ec:	f9dff0ef          	jal	ra,1188 <__modsi3>
    11f0:	00050593          	mv	a1,a0
    11f4:	00040513          	mv	a0,s0
    11f8:	fe0598e3          	bnez	a1,11e8 <main+0x30>
    11fc:	e05ff0ef          	jal	ra,1000 <outl>
    1200:	000307b7          	lui	a5,0x30
    1204:	00a00713          	li	a4,10
    1208:	00001537          	lui	a0,0x1
    120c:	00e78023          	sb	a4,0(a5) # 30000 <__heap_start+0x2e000>
    1210:	60300593          	li	a1,1539
    1214:	b5b50513          	addi	a0,a0,-1189 # b5b <outl-0x4a5>
    1218:	00058413          	mv	s0,a1
    121c:	f6dff0ef          	jal	ra,1188 <__modsi3>
    1220:	00050593          	mv	a1,a0
    1224:	00040513          	mv	a0,s0
    1228:	fe0598e3          	bnez	a1,1218 <main+0x60>
    122c:	dd5ff0ef          	jal	ra,1000 <outl>
    1230:	000307b7          	lui	a5,0x30
    1234:	00a00713          	li	a4,10
    1238:	00e78023          	sb	a4,0(a5) # 30000 <__heap_start+0x2e000>
    123c:	00c12083          	lw	ra,12(sp)
    1240:	00812403          	lw	s0,8(sp)
    1244:	00000513          	li	a0,0
    1248:	01010113          	addi	sp,sp,16
    124c:	00008067          	ret
