
./test/test.om:     file format elf32-littleriscv


Disassembly of section .rom:

00000000 <.rom>:
   0:	00020137          	lui	sp,0x20
   4:	290010ef          	jal	ra,1294 <main>
   8:	0ff00513          	li	a0,255
   c:	000306b7          	lui	a3,0x30
  10:	00a68223          	sb	a0,4(a3) # 30004 <__heap_start+0x2e004>
  14:	ff9ff06f          	j	c <outl-0xff4>

Disassembly of section .text:

00001000 <outl>:
    1000:	fc010113          	addi	sp,sp,-64 # 1ffc0 <__heap_start+0x1dfc0>
    1004:	02912a23          	sw	s1,52(sp)
    1008:	01712e23          	sw	s7,28(sp)
    100c:	02112e23          	sw	ra,60(sp)
    1010:	02812c23          	sw	s0,56(sp)
    1014:	03212823          	sw	s2,48(sp)
    1018:	03312623          	sw	s3,44(sp)
    101c:	03412423          	sw	s4,40(sp)
    1020:	03512223          	sw	s5,36(sp)
    1024:	03612023          	sw	s6,32(sp)
    1028:	00050493          	mv	s1,a0
    102c:	00000b93          	li	s7,0
    1030:	00055663          	bgez	a0,103c <outl+0x3c>
    1034:	40a004b3          	neg	s1,a0
    1038:	00100b93          	li	s7,1
    103c:	00000993          	li	s3,0
    1040:	00410a13          	addi	s4,sp,4
    1044:	00900b13          	li	s6,9
    1048:	00a00593          	li	a1,10
    104c:	00048513          	mv	a0,s1
    1050:	214000ef          	jal	ra,1264 <__modsi3>
    1054:	03050413          	addi	s0,a0,48
    1058:	00098913          	mv	s2,s3
    105c:	00198993          	addi	s3,s3,1
    1060:	013a07b3          	add	a5,s4,s3
    1064:	0ff47413          	andi	s0,s0,255
    1068:	00048513          	mv	a0,s1
    106c:	00a00593          	li	a1,10
    1070:	fe878fa3          	sb	s0,-1(a5)
    1074:	00048a93          	mv	s5,s1
    1078:	168000ef          	jal	ra,11e0 <__divsi3>
    107c:	00050493          	mv	s1,a0
    1080:	fd5b44e3          	blt	s6,s5,1048 <outl+0x48>
    1084:	000b8e63          	beqz	s7,10a0 <outl+0xa0>
    1088:	01010793          	addi	a5,sp,16
    108c:	013787b3          	add	a5,a5,s3
    1090:	02d00713          	li	a4,45
    1094:	fee78a23          	sb	a4,-12(a5)
    1098:	00098913          	mv	s2,s3
    109c:	02d00413          	li	s0,45
    10a0:	012a07b3          	add	a5,s4,s2
    10a4:	000306b7          	lui	a3,0x30
    10a8:	00c0006f          	j	10b4 <outl+0xb4>
    10ac:	fff7c403          	lbu	s0,-1(a5)
    10b0:	00070793          	mv	a5,a4
    10b4:	00868023          	sb	s0,0(a3) # 30000 <__heap_start+0x2e000>
    10b8:	fff78713          	addi	a4,a5,-1
    10bc:	fefa18e3          	bne	s4,a5,10ac <outl+0xac>
    10c0:	03c12083          	lw	ra,60(sp)
    10c4:	03812403          	lw	s0,56(sp)
    10c8:	03412483          	lw	s1,52(sp)
    10cc:	03012903          	lw	s2,48(sp)
    10d0:	02c12983          	lw	s3,44(sp)
    10d4:	02812a03          	lw	s4,40(sp)
    10d8:	02412a83          	lw	s5,36(sp)
    10dc:	02012b03          	lw	s6,32(sp)
    10e0:	01c12b83          	lw	s7,28(sp)
    10e4:	04010113          	addi	sp,sp,64
    10e8:	00008067          	ret

000010ec <printNum>:
    10ec:	fc010113          	addi	sp,sp,-64
    10f0:	02812c23          	sw	s0,56(sp)
    10f4:	03512223          	sw	s5,36(sp)
    10f8:	02112e23          	sw	ra,60(sp)
    10fc:	02912a23          	sw	s1,52(sp)
    1100:	03212823          	sw	s2,48(sp)
    1104:	03312623          	sw	s3,44(sp)
    1108:	03412423          	sw	s4,40(sp)
    110c:	03612023          	sw	s6,32(sp)
    1110:	01712e23          	sw	s7,28(sp)
    1114:	00050413          	mv	s0,a0
    1118:	00000a93          	li	s5,0
    111c:	00055663          	bgez	a0,1128 <printNum+0x3c>
    1120:	40a00433          	neg	s0,a0
    1124:	00100a93          	li	s5,1
    1128:	00000993          	li	s3,0
    112c:	00410a13          	addi	s4,sp,4
    1130:	00900b13          	li	s6,9
    1134:	00a00593          	li	a1,10
    1138:	00040513          	mv	a0,s0
    113c:	128000ef          	jal	ra,1264 <__modsi3>
    1140:	03050913          	addi	s2,a0,48
    1144:	00098493          	mv	s1,s3
    1148:	00198993          	addi	s3,s3,1
    114c:	013a07b3          	add	a5,s4,s3
    1150:	0ff97913          	andi	s2,s2,255
    1154:	00040513          	mv	a0,s0
    1158:	00a00593          	li	a1,10
    115c:	ff278fa3          	sb	s2,-1(a5)
    1160:	00040b93          	mv	s7,s0
    1164:	07c000ef          	jal	ra,11e0 <__divsi3>
    1168:	00050413          	mv	s0,a0
    116c:	fd7b44e3          	blt	s6,s7,1134 <printNum+0x48>
    1170:	000a8e63          	beqz	s5,118c <printNum+0xa0>
    1174:	01010793          	addi	a5,sp,16
    1178:	013787b3          	add	a5,a5,s3
    117c:	02d00713          	li	a4,45
    1180:	fee78a23          	sb	a4,-12(a5)
    1184:	00098493          	mv	s1,s3
    1188:	02d00913          	li	s2,45
    118c:	009a07b3          	add	a5,s4,s1
    1190:	00030737          	lui	a4,0x30
    1194:	00c0006f          	j	11a0 <printNum+0xb4>
    1198:	fff7c903          	lbu	s2,-1(a5)
    119c:	00068793          	mv	a5,a3
    11a0:	01270023          	sb	s2,0(a4) # 30000 <__heap_start+0x2e000>
    11a4:	fff78693          	addi	a3,a5,-1
    11a8:	fefa18e3          	bne	s4,a5,1198 <printNum+0xac>
    11ac:	00a00793          	li	a5,10
    11b0:	00f70023          	sb	a5,0(a4)
    11b4:	03c12083          	lw	ra,60(sp)
    11b8:	03812403          	lw	s0,56(sp)
    11bc:	03412483          	lw	s1,52(sp)
    11c0:	03012903          	lw	s2,48(sp)
    11c4:	02c12983          	lw	s3,44(sp)
    11c8:	02812a03          	lw	s4,40(sp)
    11cc:	02412a83          	lw	s5,36(sp)
    11d0:	02012b03          	lw	s6,32(sp)
    11d4:	01c12b83          	lw	s7,28(sp)
    11d8:	04010113          	addi	sp,sp,64
    11dc:	00008067          	ret

000011e0 <__divsi3>:
    11e0:	06054063          	bltz	a0,1240 <__umodsi3+0x10>
    11e4:	0605c663          	bltz	a1,1250 <__umodsi3+0x20>

000011e8 <__udivsi3>:
    11e8:	00058613          	mv	a2,a1
    11ec:	00050593          	mv	a1,a0
    11f0:	fff00513          	li	a0,-1
    11f4:	02060c63          	beqz	a2,122c <__udivsi3+0x44>
    11f8:	00100693          	li	a3,1
    11fc:	00b67a63          	bgeu	a2,a1,1210 <__udivsi3+0x28>
    1200:	00c05863          	blez	a2,1210 <__udivsi3+0x28>
    1204:	00161613          	slli	a2,a2,0x1
    1208:	00169693          	slli	a3,a3,0x1
    120c:	feb66ae3          	bltu	a2,a1,1200 <__udivsi3+0x18>
    1210:	00000513          	li	a0,0
    1214:	00c5e663          	bltu	a1,a2,1220 <__udivsi3+0x38>
    1218:	40c585b3          	sub	a1,a1,a2
    121c:	00d56533          	or	a0,a0,a3
    1220:	0016d693          	srli	a3,a3,0x1
    1224:	00165613          	srli	a2,a2,0x1
    1228:	fe0696e3          	bnez	a3,1214 <__udivsi3+0x2c>
    122c:	00008067          	ret

00001230 <__umodsi3>:
    1230:	00008293          	mv	t0,ra
    1234:	fb5ff0ef          	jal	ra,11e8 <__udivsi3>
    1238:	00058513          	mv	a0,a1
    123c:	00028067          	jr	t0
    1240:	40a00533          	neg	a0,a0
    1244:	0005d863          	bgez	a1,1254 <__umodsi3+0x24>
    1248:	40b005b3          	neg	a1,a1
    124c:	f9dff06f          	j	11e8 <__udivsi3>
    1250:	40b005b3          	neg	a1,a1
    1254:	00008293          	mv	t0,ra
    1258:	f91ff0ef          	jal	ra,11e8 <__udivsi3>
    125c:	40a00533          	neg	a0,a0
    1260:	00028067          	jr	t0

00001264 <__modsi3>:
    1264:	00008293          	mv	t0,ra
    1268:	0005ca63          	bltz	a1,127c <__modsi3+0x18>
    126c:	00054c63          	bltz	a0,1284 <__modsi3+0x20>
    1270:	f79ff0ef          	jal	ra,11e8 <__udivsi3>
    1274:	00058513          	mv	a0,a1
    1278:	00028067          	jr	t0
    127c:	40b005b3          	neg	a1,a1
    1280:	fe0558e3          	bgez	a0,1270 <__modsi3+0xc>
    1284:	40a00533          	neg	a0,a0
    1288:	f61ff0ef          	jal	ra,11e8 <__udivsi3>
    128c:	40b00533          	neg	a0,a1
    1290:	00028067          	jr	t0

Disassembly of section .text.startup:

00001294 <main>:
    1294:	fa010113          	addi	sp,sp,-96
    1298:	04812c23          	sw	s0,88(sp)
    129c:	00001437          	lui	s0,0x1
    12a0:	05412423          	sw	s4,72(sp)
    12a4:	53440a13          	addi	s4,s0,1332 # 1534 <a>
    12a8:	04112e23          	sw	ra,92(sp)
    12ac:	04912a23          	sw	s1,84(sp)
    12b0:	05212823          	sw	s2,80(sp)
    12b4:	05312623          	sw	s3,76(sp)
    12b8:	05512223          	sw	s5,68(sp)
    12bc:	05612023          	sw	s6,64(sp)
    12c0:	03712e23          	sw	s7,60(sp)
    12c4:	03812c23          	sw	s8,56(sp)
    12c8:	03912a23          	sw	s9,52(sp)
    12cc:	03a12823          	sw	s10,48(sp)
    12d0:	03b12623          	sw	s11,44(sp)
    12d4:	53440413          	addi	s0,s0,1332
    12d8:	028a0713          	addi	a4,s4,40
    12dc:	0d8a0613          	addi	a2,s4,216
    12e0:	37800693          	li	a3,888
    12e4:	fd870793          	addi	a5,a4,-40
    12e8:	00d7a023          	sw	a3,0(a5)
    12ec:	00478793          	addi	a5,a5,4
    12f0:	fef71ce3          	bne	a4,a5,12e8 <main+0x54>
    12f4:	02c70713          	addi	a4,a4,44
    12f8:	fec716e3          	bne	a4,a2,12e4 <main+0x50>
    12fc:	00001b37          	lui	s6,0x1
    1300:	504b0793          	addi	a5,s6,1284 # 1504 <__bss_start>
    1304:	0a8a2503          	lw	a0,168(s4)
    1308:	00078713          	mv	a4,a5
    130c:	00f12623          	sw	a5,12(sp)
    1310:	fff00793          	li	a5,-1
    1314:	00a00493          	li	s1,10
    1318:	00f72023          	sw	a5,0(a4)
    131c:	00f72423          	sw	a5,8(a4)
    1320:	00f72823          	sw	a5,16(a4)
    1324:	00f72c23          	sw	a5,24(a4)
    1328:	02f72023          	sw	a5,32(a4)
    132c:	00001db7          	lui	s11,0x1
    1330:	00500793          	li	a5,5
    1334:	000019b7          	lui	s3,0x1
    1338:	52f9a823          	sw	a5,1328(s3) # 1530 <i>
    133c:	529da623          	sw	s1,1324(s11) # 152c <j>
    1340:	cc1ff0ef          	jal	ra,1000 <outl>
    1344:	000307b7          	lui	a5,0x30
    1348:	00978023          	sb	s1,0(a5) # 30000 <__heap_start+0x2e000>
    134c:	00a00693          	li	a3,10
    1350:	03200613          	li	a2,50
    1354:	ff668793          	addi	a5,a3,-10
    1358:	00040713          	mv	a4,s0
    135c:	00f72023          	sw	a5,0(a4)
    1360:	00178793          	addi	a5,a5,1
    1364:	00470713          	addi	a4,a4,4
    1368:	fef69ae3          	bne	a3,a5,135c <main+0xc8>
    136c:	00a68693          	addi	a3,a3,10
    1370:	02c40413          	addi	s0,s0,44
    1374:	fec690e3          	bne	a3,a2,1354 <main+0xc0>
    1378:	5209a823          	sw	zero,1328(s3)
    137c:	00000693          	li	a3,0
    1380:	01410413          	addi	s0,sp,20
    1384:	00900913          	li	s2,9
    1388:	02d00a93          	li	s5,45
    138c:	000304b7          	lui	s1,0x30
    1390:	520da623          	sw	zero,1324(s11)
    1394:	00000713          	li	a4,0
    1398:	00169793          	slli	a5,a3,0x1
    139c:	00d787b3          	add	a5,a5,a3
    13a0:	00279793          	slli	a5,a5,0x2
    13a4:	40d787b3          	sub	a5,a5,a3
    13a8:	00e787b3          	add	a5,a5,a4
    13ac:	00279793          	slli	a5,a5,0x2
    13b0:	00fa07b3          	add	a5,s4,a5
    13b4:	0007ac83          	lw	s9,0(a5)
    13b8:	00000b93          	li	s7,0
    13bc:	080cc863          	bltz	s9,144c <main+0x1b8>
    13c0:	00000c13          	li	s8,0
    13c4:	00a00593          	li	a1,10
    13c8:	000c8513          	mv	a0,s9
    13cc:	e99ff0ef          	jal	ra,1264 <__modsi3>
    13d0:	000c0d13          	mv	s10,s8
    13d4:	001c0c13          	addi	s8,s8,1
    13d8:	03050793          	addi	a5,a0,48
    13dc:	018406b3          	add	a3,s0,s8
    13e0:	000c8513          	mv	a0,s9
    13e4:	00a00593          	li	a1,10
    13e8:	fef68fa3          	sb	a5,-1(a3)
    13ec:	000c8b13          	mv	s6,s9
    13f0:	df1ff0ef          	jal	ra,11e0 <__divsi3>
    13f4:	00050c93          	mv	s9,a0
    13f8:	fd6946e3          	blt	s2,s6,13c4 <main+0x130>
    13fc:	02010793          	addi	a5,sp,32
    1400:	040b9c63          	bnez	s7,1458 <main+0x1c4>
    1404:	01a787b3          	add	a5,a5,s10
    1408:	ff47c783          	lbu	a5,-12(a5)
    140c:	000d0c13          	mv	s8,s10
    1410:	01840c33          	add	s8,s0,s8
    1414:	00c0006f          	j	1420 <main+0x18c>
    1418:	fffc4783          	lbu	a5,-1(s8)
    141c:	00070c13          	mv	s8,a4
    1420:	00f48023          	sb	a5,0(s1) # 30000 <__heap_start+0x2e000>
    1424:	fffc0713          	addi	a4,s8,-1
    1428:	ff8418e3          	bne	s0,s8,1418 <main+0x184>
    142c:	00a00c13          	li	s8,10
    1430:	01848023          	sb	s8,0(s1)
    1434:	52cda783          	lw	a5,1324(s11)
    1438:	00178713          	addi	a4,a5,1
    143c:	52eda623          	sw	a4,1324(s11)
    1440:	02e94463          	blt	s2,a4,1468 <main+0x1d4>
    1444:	5309a683          	lw	a3,1328(s3)
    1448:	f51ff06f          	j	1398 <main+0x104>
    144c:	41900cb3          	neg	s9,s9
    1450:	00100b93          	li	s7,1
    1454:	f6dff06f          	j	13c0 <main+0x12c>
    1458:	018787b3          	add	a5,a5,s8
    145c:	ff578a23          	sb	s5,-12(a5)
    1460:	02d00793          	li	a5,45
    1464:	fadff06f          	j	1410 <main+0x17c>
    1468:	5309a783          	lw	a5,1328(s3)
    146c:	00178693          	addi	a3,a5,1
    1470:	52d9a823          	sw	a3,1328(s3)
    1474:	00300793          	li	a5,3
    1478:	f0d7dce3          	bge	a5,a3,1390 <main+0xfc>
    147c:	00000513          	li	a0,0
    1480:	080a2023          	sw	zero,128(s4)
    1484:	b7dff0ef          	jal	ra,1000 <outl>
    1488:	080a2783          	lw	a5,128(s4)
    148c:	01848023          	sb	s8,0(s1)
    1490:	00c12403          	lw	s0,12(sp)
    1494:	ffe00713          	li	a4,-2
    1498:	00379793          	slli	a5,a5,0x3
    149c:	00e42023          	sw	a4,0(s0)
    14a0:	00f407b3          	add	a5,s0,a5
    14a4:	ff600713          	li	a4,-10
    14a8:	00e7a023          	sw	a4,0(a5)
    14ac:	00042503          	lw	a0,0(s0)
    14b0:	b51ff0ef          	jal	ra,1000 <outl>
    14b4:	00842503          	lw	a0,8(s0)
    14b8:	01848023          	sb	s8,0(s1)
    14bc:	b45ff0ef          	jal	ra,1000 <outl>
    14c0:	01848023          	sb	s8,0(s1)
    14c4:	05c12083          	lw	ra,92(sp)
    14c8:	05812403          	lw	s0,88(sp)
    14cc:	05412483          	lw	s1,84(sp)
    14d0:	05012903          	lw	s2,80(sp)
    14d4:	04c12983          	lw	s3,76(sp)
    14d8:	04812a03          	lw	s4,72(sp)
    14dc:	04412a83          	lw	s5,68(sp)
    14e0:	04012b03          	lw	s6,64(sp)
    14e4:	03c12b83          	lw	s7,60(sp)
    14e8:	03812c03          	lw	s8,56(sp)
    14ec:	03412c83          	lw	s9,52(sp)
    14f0:	03012d03          	lw	s10,48(sp)
    14f4:	02c12d83          	lw	s11,44(sp)
    14f8:	00000513          	li	a0,0
    14fc:	06010113          	addi	sp,sp,96
    1500:	00008067          	ret
