
./test/test.om:     file format elf32-littleriscv


Disassembly of section .rom:

00000000 <.rom>:
   0:	00020137          	lui	sp,0x20
   4:	0d4010ef          	jal	ra,10d8 <main>
   8:	0ff00513          	li	a0,255
   c:	000306b7          	lui	a3,0x30
  10:	00a68223          	sb	a0,4(a3) # 30004 <__heap_start+0x2e004>
  14:	ff9ff06f          	j	c <__mulsi3-0xff4>

Disassembly of section .text:

00001000 <__mulsi3>:
    1000:	00050613          	mv	a2,a0
    1004:	00000513          	li	a0,0
    1008:	0015f693          	andi	a3,a1,1
    100c:	00068463          	beqz	a3,1014 <__mulsi3+0x14>
    1010:	00c50533          	add	a0,a0,a2
    1014:	0015d593          	srli	a1,a1,0x1
    1018:	00161613          	slli	a2,a2,0x1
    101c:	fe0596e3          	bnez	a1,1008 <__mulsi3+0x8>
    1020:	00008067          	ret

00001024 <__divsi3>:
    1024:	06054063          	bltz	a0,1084 <__umodsi3+0x10>
    1028:	0605c663          	bltz	a1,1094 <__umodsi3+0x20>

0000102c <__udivsi3>:
    102c:	00058613          	mv	a2,a1
    1030:	00050593          	mv	a1,a0
    1034:	fff00513          	li	a0,-1
    1038:	02060c63          	beqz	a2,1070 <__udivsi3+0x44>
    103c:	00100693          	li	a3,1
    1040:	00b67a63          	bgeu	a2,a1,1054 <__udivsi3+0x28>
    1044:	00c05863          	blez	a2,1054 <__udivsi3+0x28>
    1048:	00161613          	slli	a2,a2,0x1
    104c:	00169693          	slli	a3,a3,0x1
    1050:	feb66ae3          	bltu	a2,a1,1044 <__udivsi3+0x18>
    1054:	00000513          	li	a0,0
    1058:	00c5e663          	bltu	a1,a2,1064 <__udivsi3+0x38>
    105c:	40c585b3          	sub	a1,a1,a2
    1060:	00d56533          	or	a0,a0,a3
    1064:	0016d693          	srli	a3,a3,0x1
    1068:	00165613          	srli	a2,a2,0x1
    106c:	fe0696e3          	bnez	a3,1058 <__udivsi3+0x2c>
    1070:	00008067          	ret

00001074 <__umodsi3>:
    1074:	00008293          	mv	t0,ra
    1078:	fb5ff0ef          	jal	ra,102c <__udivsi3>
    107c:	00058513          	mv	a0,a1
    1080:	00028067          	jr	t0
    1084:	40a00533          	neg	a0,a0
    1088:	0005d863          	bgez	a1,1098 <__umodsi3+0x24>
    108c:	40b005b3          	neg	a1,a1
    1090:	f9dff06f          	j	102c <__udivsi3>
    1094:	40b005b3          	neg	a1,a1
    1098:	00008293          	mv	t0,ra
    109c:	f91ff0ef          	jal	ra,102c <__udivsi3>
    10a0:	40a00533          	neg	a0,a0
    10a4:	00028067          	jr	t0

000010a8 <__modsi3>:
    10a8:	00008293          	mv	t0,ra
    10ac:	0005ca63          	bltz	a1,10c0 <__modsi3+0x18>
    10b0:	00054c63          	bltz	a0,10c8 <__modsi3+0x20>
    10b4:	f79ff0ef          	jal	ra,102c <__udivsi3>
    10b8:	00058513          	mv	a0,a1
    10bc:	00028067          	jr	t0
    10c0:	40b005b3          	neg	a1,a1
    10c4:	fe0558e3          	bgez	a0,10b4 <__modsi3+0xc>
    10c8:	40a00533          	neg	a0,a0
    10cc:	f61ff0ef          	jal	ra,102c <__udivsi3>
    10d0:	40b00533          	neg	a0,a1
    10d4:	00028067          	jr	t0

Disassembly of section .text.startup:

000010d8 <main>:
    10d8:	f2010113          	addi	sp,sp,-224 # 1ff20 <__heap_start+0x1df20>
    10dc:	000017b7          	lui	a5,0x1
    10e0:	00a00713          	li	a4,10
    10e4:	000016b7          	lui	a3,0x1
    10e8:	0b812c23          	sw	s8,184(sp)
    10ec:	33478c13          	addi	s8,a5,820 # 1334 <check>
    10f0:	32e6a823          	sw	a4,816(a3) # 1330 <__bss_start>
    10f4:	0c112e23          	sw	ra,220(sp)
    10f8:	0c812c23          	sw	s0,216(sp)
    10fc:	0c912a23          	sw	s1,212(sp)
    1100:	0d212823          	sw	s2,208(sp)
    1104:	0d312623          	sw	s3,204(sp)
    1108:	0d412423          	sw	s4,200(sp)
    110c:	0d512223          	sw	s5,196(sp)
    1110:	0d612023          	sw	s6,192(sp)
    1114:	0b712e23          	sw	s7,188(sp)
    1118:	0b912a23          	sw	s9,180(sp)
    111c:	0ba12823          	sw	s10,176(sp)
    1120:	0bb12623          	sw	s11,172(sp)
    1124:	33478793          	addi	a5,a5,820
    1128:	02cc0693          	addi	a3,s8,44
    112c:	00100713          	li	a4,1
    1130:	00e7a023          	sw	a4,0(a5)
    1134:	00478793          	addi	a5,a5,4
    1138:	fed79ce3          	bne	a5,a3,1130 <main+0x58>
    113c:	00001db7          	lui	s11,0x1
    1140:	33cd8793          	addi	a5,s11,828 # 133c <check+0x8>
    1144:	00f12623          	sw	a5,12(sp)
    1148:	03010b13          	addi	s6,sp,48
    114c:	00200913          	li	s2,2
    1150:	00a00b93          	li	s7,10
    1154:	01c10993          	addi	s3,sp,28
    1158:	00c12783          	lw	a5,12(sp)
    115c:	000016b7          	lui	a3,0x1
    1160:	3846aa83          	lw	s5,900(a3) # 1384 <__bss_end>
    1164:	0007a783          	lw	a5,0(a5)
    1168:	18078c63          	beqz	a5,1300 <main+0x228>
    116c:	001a8a93          	addi	s5,s5,1
    1170:	002a9713          	slli	a4,s5,0x2
    1174:	0a010793          	addi	a5,sp,160
    1178:	00e78733          	add	a4,a5,a4
    117c:	fff90d93          	addi	s11,s2,-1
    1180:	3956a223          	sw	s5,900(a3)
    1184:	fd272223          	sw	s2,-60(a4)
    1188:	01bb2023          	sw	s11,0(s6)
    118c:	00000493          	li	s1,0
    1190:	07505c63          	blez	s5,1208 <main+0x130>
    1194:	06810493          	addi	s1,sp,104
    1198:	00100413          	li	s0,1
    119c:	0300006f          	j	11cc <main+0xf4>
    11a0:	00082023          	sw	zero,0(a6)
    11a4:	f05ff0ef          	jal	ra,10a8 <__modsi3>
    11a8:	00050713          	mv	a4,a0
    11ac:	000d8593          	mv	a1,s11
    11b0:	fffc8513          	addi	a0,s9,-1
    11b4:	14070c63          	beqz	a4,130c <main+0x234>
    11b8:	e49ff0ef          	jal	ra,1000 <__mulsi3>
    11bc:	f8aa2423          	sw	a0,-120(s4)
    11c0:	000b2d83          	lw	s11,0(s6)
    11c4:	00448493          	addi	s1,s1,4
    11c8:	028acc63          	blt	s5,s0,1200 <main+0x128>
    11cc:	0004ac83          	lw	s9,0(s1)
    11d0:	00090593          	mv	a1,s2
    11d4:	00140413          	addi	s0,s0,1
    11d8:	000c8513          	mv	a0,s9
    11dc:	e25ff0ef          	jal	ra,1000 <__mulsi3>
    11e0:	00050713          	mv	a4,a0
    11e4:	00271d13          	slli	s10,a4,0x2
    11e8:	0a010793          	addi	a5,sp,160
    11ec:	000c8593          	mv	a1,s9
    11f0:	00090513          	mv	a0,s2
    11f4:	01ac0833          	add	a6,s8,s10
    11f8:	01a78a33          	add	s4,a5,s10
    11fc:	faebd2e3          	bge	s7,a4,11a0 <main+0xc8>
    1200:	00000493          	li	s1,0
    1204:	0e0dc863          	bltz	s11,12f4 <main+0x21c>
    1208:	00000413          	li	s0,0
    120c:	00a00593          	li	a1,10
    1210:	000d8513          	mv	a0,s11
    1214:	e95ff0ef          	jal	ra,10a8 <__modsi3>
    1218:	03050a13          	addi	s4,a0,48
    121c:	00040a93          	mv	s5,s0
    1220:	00140413          	addi	s0,s0,1
    1224:	00898733          	add	a4,s3,s0
    1228:	0ffa7a13          	andi	s4,s4,255
    122c:	000d8513          	mv	a0,s11
    1230:	00a00593          	li	a1,10
    1234:	ff470fa3          	sb	s4,-1(a4)
    1238:	dedff0ef          	jal	ra,1024 <__divsi3>
    123c:	000d8b93          	mv	s7,s11
    1240:	00900793          	li	a5,9
    1244:	00050d93          	mv	s11,a0
    1248:	fd77c2e3          	blt	a5,s7,120c <main+0x134>
    124c:	00048e63          	beqz	s1,1268 <main+0x190>
    1250:	0a010793          	addi	a5,sp,160
    1254:	008787b3          	add	a5,a5,s0
    1258:	02d00713          	li	a4,45
    125c:	f6e78e23          	sb	a4,-132(a5)
    1260:	00040a93          	mv	s5,s0
    1264:	02d00a13          	li	s4,45
    1268:	015987b3          	add	a5,s3,s5
    126c:	00c0006f          	j	1278 <main+0x1a0>
    1270:	fff7ca03          	lbu	s4,-1(a5)
    1274:	00070793          	mv	a5,a4
    1278:	00030737          	lui	a4,0x30
    127c:	01470023          	sb	s4,0(a4) # 30000 <__heap_start+0x2e000>
    1280:	fff78713          	addi	a4,a5,-1
    1284:	fef996e3          	bne	s3,a5,1270 <main+0x198>
    1288:	00a00793          	li	a5,10
    128c:	00030737          	lui	a4,0x30
    1290:	00f70023          	sb	a5,0(a4) # 30000 <__heap_start+0x2e000>
    1294:	000017b7          	lui	a5,0x1
    1298:	3307ab83          	lw	s7,816(a5) # 1330 <__bss_start>
    129c:	00c12783          	lw	a5,12(sp)
    12a0:	00190913          	addi	s2,s2,1
    12a4:	004b0b13          	addi	s6,s6,4
    12a8:	00478793          	addi	a5,a5,4
    12ac:	00f12623          	sw	a5,12(sp)
    12b0:	eb2bd4e3          	bge	s7,s2,1158 <main+0x80>
    12b4:	0dc12083          	lw	ra,220(sp)
    12b8:	0d812403          	lw	s0,216(sp)
    12bc:	0d412483          	lw	s1,212(sp)
    12c0:	0d012903          	lw	s2,208(sp)
    12c4:	0cc12983          	lw	s3,204(sp)
    12c8:	0c812a03          	lw	s4,200(sp)
    12cc:	0c412a83          	lw	s5,196(sp)
    12d0:	0c012b03          	lw	s6,192(sp)
    12d4:	0bc12b83          	lw	s7,188(sp)
    12d8:	0b812c03          	lw	s8,184(sp)
    12dc:	0b412c83          	lw	s9,180(sp)
    12e0:	0b012d03          	lw	s10,176(sp)
    12e4:	0ac12d83          	lw	s11,172(sp)
    12e8:	00000513          	li	a0,0
    12ec:	0e010113          	addi	sp,sp,224
    12f0:	00008067          	ret
    12f4:	41b00db3          	neg	s11,s11
    12f8:	00100493          	li	s1,1
    12fc:	f0dff06f          	j	1208 <main+0x130>
    1300:	000b2d83          	lw	s11,0(s6)
    1304:	e95048e3          	bgtz	s5,1194 <main+0xbc>
    1308:	ef9ff06f          	j	1200 <main+0x128>
    130c:	000c8513          	mv	a0,s9
    1310:	cf1ff0ef          	jal	ra,1000 <__mulsi3>
    1314:	0a010793          	addi	a5,sp,160
    1318:	01a78633          	add	a2,a5,s10
    131c:	f8a62423          	sw	a0,-120(a2)
    1320:	000b2d83          	lw	s11,0(s6)
    1324:	00000493          	li	s1,0
    1328:	ee0dd0e3          	bgez	s11,1208 <main+0x130>
    132c:	fc9ff06f          	j	12f4 <main+0x21c>
